
rv32ui-p-slti:     file format elf32-littleriscv


Disassembly of section .text.init:

80000000 <_start>:
80000000:	00000093          	addi	x1,x0,0
80000004:	00000113          	addi	x2,x0,0
80000008:	00000193          	addi	x3,x0,0
8000000c:	00000213          	addi	x4,x0,0
80000010:	00000293          	addi	x5,x0,0
80000014:	00000313          	addi	x6,x0,0
80000018:	00000393          	addi	x7,x0,0
8000001c:	00000413          	addi	x8,x0,0
80000020:	00000493          	addi	x9,x0,0
80000024:	00000513          	addi	x10,x0,0
80000028:	00000593          	addi	x11,x0,0
8000002c:	00000613          	addi	x12,x0,0
80000030:	00000693          	addi	x13,x0,0
80000034:	00000713          	addi	x14,x0,0
80000038:	00000793          	addi	x15,x0,0
8000003c:	00000813          	addi	x16,x0,0
80000040:	00000893          	addi	x17,x0,0
80000044:	00000913          	addi	x18,x0,0
80000048:	00000993          	addi	x19,x0,0
8000004c:	00000a13          	addi	x20,x0,0
80000050:	00000a93          	addi	x21,x0,0
80000054:	00000b13          	addi	x22,x0,0
80000058:	00000b93          	addi	x23,x0,0
8000005c:	00000c13          	addi	x24,x0,0
80000060:	00000c93          	addi	x25,x0,0
80000064:	00000d13          	addi	x26,x0,0
80000068:	00000d93          	addi	x27,x0,0
8000006c:	00000e13          	addi	x28,x0,0
80000070:	00000e93          	addi	x29,x0,0
80000074:	00000f13          	addi	x30,x0,0
80000078:	00000f93          	addi	x31,x0,0
8000007c:	00000193          	addi	x3,x0,0

80000080 <test_2>:
80000080:	00200193          	addi	x3,x0,2
80000084:	00000093          	addi	x1,x0,0
80000088:	0000a713          	slti	x14,x1,0
8000008c:	00000393          	addi	x7,x0,0
80000090:	26771263          	bne	x14,x7,800002f4 <fail>

80000094 <test_3>:
80000094:	00300193          	addi	x3,x0,3
80000098:	00100093          	addi	x1,x0,1
8000009c:	0010a713          	slti	x14,x1,1
800000a0:	00000393          	addi	x7,x0,0
800000a4:	24771863          	bne	x14,x7,800002f4 <fail>

800000a8 <test_4>:
800000a8:	00400193          	addi	x3,x0,4
800000ac:	00300093          	addi	x1,x0,3
800000b0:	0070a713          	slti	x14,x1,7
800000b4:	00100393          	addi	x7,x0,1
800000b8:	22771e63          	bne	x14,x7,800002f4 <fail>

800000bc <test_5>:
800000bc:	00500193          	addi	x3,x0,5
800000c0:	00700093          	addi	x1,x0,7
800000c4:	0030a713          	slti	x14,x1,3
800000c8:	00000393          	addi	x7,x0,0
800000cc:	22771463          	bne	x14,x7,800002f4 <fail>

800000d0 <test_6>:
800000d0:	00600193          	addi	x3,x0,6
800000d4:	00000093          	addi	x1,x0,0
800000d8:	8000a713          	slti	x14,x1,-2048
800000dc:	00000393          	addi	x7,x0,0
800000e0:	20771a63          	bne	x14,x7,800002f4 <fail>

800000e4 <test_7>:
800000e4:	00700193          	addi	x3,x0,7
800000e8:	800000b7          	lui	x1,0x80000
800000ec:	0000a713          	slti	x14,x1,0
800000f0:	00100393          	addi	x7,x0,1
800000f4:	20771063          	bne	x14,x7,800002f4 <fail>

800000f8 <test_8>:
800000f8:	00800193          	addi	x3,x0,8
800000fc:	800000b7          	lui	x1,0x80000
80000100:	8000a713          	slti	x14,x1,-2048
80000104:	00100393          	addi	x7,x0,1
80000108:	1e771663          	bne	x14,x7,800002f4 <fail>

8000010c <test_9>:
8000010c:	00900193          	addi	x3,x0,9
80000110:	00000093          	addi	x1,x0,0
80000114:	7ff0a713          	slti	x14,x1,2047
80000118:	00100393          	addi	x7,x0,1
8000011c:	1c771c63          	bne	x14,x7,800002f4 <fail>

80000120 <test_10>:
80000120:	00a00193          	addi	x3,x0,10
80000124:	800000b7          	lui	x1,0x80000
80000128:	fff08093          	addi	x1,x1,-1 # 7fffffff <_start-0x1>
8000012c:	0000a713          	slti	x14,x1,0
80000130:	00000393          	addi	x7,x0,0
80000134:	1c771063          	bne	x14,x7,800002f4 <fail>

80000138 <test_11>:
80000138:	00b00193          	addi	x3,x0,11
8000013c:	800000b7          	lui	x1,0x80000
80000140:	fff08093          	addi	x1,x1,-1 # 7fffffff <_start-0x1>
80000144:	7ff0a713          	slti	x14,x1,2047
80000148:	00000393          	addi	x7,x0,0
8000014c:	1a771463          	bne	x14,x7,800002f4 <fail>

80000150 <test_12>:
80000150:	00c00193          	addi	x3,x0,12
80000154:	800000b7          	lui	x1,0x80000
80000158:	7ff0a713          	slti	x14,x1,2047
8000015c:	00100393          	addi	x7,x0,1
80000160:	18771a63          	bne	x14,x7,800002f4 <fail>

80000164 <test_13>:
80000164:	00d00193          	addi	x3,x0,13
80000168:	800000b7          	lui	x1,0x80000
8000016c:	fff08093          	addi	x1,x1,-1 # 7fffffff <_start-0x1>
80000170:	8000a713          	slti	x14,x1,-2048
80000174:	00000393          	addi	x7,x0,0
80000178:	16771e63          	bne	x14,x7,800002f4 <fail>

8000017c <test_14>:
8000017c:	00e00193          	addi	x3,x0,14
80000180:	00000093          	addi	x1,x0,0
80000184:	fff0a713          	slti	x14,x1,-1
80000188:	00000393          	addi	x7,x0,0
8000018c:	16771463          	bne	x14,x7,800002f4 <fail>

80000190 <test_15>:
80000190:	00f00193          	addi	x3,x0,15
80000194:	fff00093          	addi	x1,x0,-1
80000198:	0010a713          	slti	x14,x1,1
8000019c:	00100393          	addi	x7,x0,1
800001a0:	14771a63          	bne	x14,x7,800002f4 <fail>

800001a4 <test_16>:
800001a4:	01000193          	addi	x3,x0,16
800001a8:	fff00093          	addi	x1,x0,-1
800001ac:	fff0a713          	slti	x14,x1,-1
800001b0:	00000393          	addi	x7,x0,0
800001b4:	14771063          	bne	x14,x7,800002f4 <fail>

800001b8 <test_17>:
800001b8:	01100193          	addi	x3,x0,17
800001bc:	00b00093          	addi	x1,x0,11
800001c0:	00d0a093          	slti	x1,x1,13
800001c4:	00100393          	addi	x7,x0,1
800001c8:	12709663          	bne	x1,x7,800002f4 <fail>

800001cc <test_18>:
800001cc:	01200193          	addi	x3,x0,18
800001d0:	00000213          	addi	x4,x0,0
800001d4:	00f00093          	addi	x1,x0,15
800001d8:	00a0a713          	slti	x14,x1,10
800001dc:	00070313          	addi	x6,x14,0
800001e0:	00120213          	addi	x4,x4,1 # 1 <_start-0x7fffffff>
800001e4:	00200293          	addi	x5,x0,2
800001e8:	fe5216e3          	bne	x4,x5,800001d4 <test_18+0x8>
800001ec:	00000393          	addi	x7,x0,0
800001f0:	10731263          	bne	x6,x7,800002f4 <fail>

800001f4 <test_19>:
800001f4:	01300193          	addi	x3,x0,19
800001f8:	00000213          	addi	x4,x0,0
800001fc:	00a00093          	addi	x1,x0,10
80000200:	0100a713          	slti	x14,x1,16
80000204:	00000013          	addi	x0,x0,0
80000208:	00070313          	addi	x6,x14,0
8000020c:	00120213          	addi	x4,x4,1 # 1 <_start-0x7fffffff>
80000210:	00200293          	addi	x5,x0,2
80000214:	fe5214e3          	bne	x4,x5,800001fc <test_19+0x8>
80000218:	00100393          	addi	x7,x0,1
8000021c:	0c731c63          	bne	x6,x7,800002f4 <fail>

80000220 <test_20>:
80000220:	01400193          	addi	x3,x0,20
80000224:	00000213          	addi	x4,x0,0
80000228:	01000093          	addi	x1,x0,16
8000022c:	0090a713          	slti	x14,x1,9
80000230:	00000013          	addi	x0,x0,0
80000234:	00000013          	addi	x0,x0,0
80000238:	00070313          	addi	x6,x14,0
8000023c:	00120213          	addi	x4,x4,1 # 1 <_start-0x7fffffff>
80000240:	00200293          	addi	x5,x0,2
80000244:	fe5212e3          	bne	x4,x5,80000228 <test_20+0x8>
80000248:	00000393          	addi	x7,x0,0
8000024c:	0a731463          	bne	x6,x7,800002f4 <fail>

80000250 <test_21>:
80000250:	01500193          	addi	x3,x0,21
80000254:	00000213          	addi	x4,x0,0
80000258:	00b00093          	addi	x1,x0,11
8000025c:	00f0a713          	slti	x14,x1,15
80000260:	00120213          	addi	x4,x4,1 # 1 <_start-0x7fffffff>
80000264:	00200293          	addi	x5,x0,2
80000268:	fe5218e3          	bne	x4,x5,80000258 <test_21+0x8>
8000026c:	00100393          	addi	x7,x0,1
80000270:	08771263          	bne	x14,x7,800002f4 <fail>

80000274 <test_22>:
80000274:	01600193          	addi	x3,x0,22
80000278:	00000213          	addi	x4,x0,0
8000027c:	01100093          	addi	x1,x0,17
80000280:	00000013          	addi	x0,x0,0
80000284:	0080a713          	slti	x14,x1,8
80000288:	00120213          	addi	x4,x4,1 # 1 <_start-0x7fffffff>
8000028c:	00200293          	addi	x5,x0,2
80000290:	fe5216e3          	bne	x4,x5,8000027c <test_22+0x8>
80000294:	00000393          	addi	x7,x0,0
80000298:	04771e63          	bne	x14,x7,800002f4 <fail>

8000029c <test_23>:
8000029c:	01700193          	addi	x3,x0,23
800002a0:	00000213          	addi	x4,x0,0
800002a4:	00c00093          	addi	x1,x0,12
800002a8:	00000013          	addi	x0,x0,0
800002ac:	00000013          	addi	x0,x0,0
800002b0:	00e0a713          	slti	x14,x1,14
800002b4:	00120213          	addi	x4,x4,1 # 1 <_start-0x7fffffff>
800002b8:	00200293          	addi	x5,x0,2
800002bc:	fe5214e3          	bne	x4,x5,800002a4 <test_23+0x8>
800002c0:	00100393          	addi	x7,x0,1
800002c4:	02771863          	bne	x14,x7,800002f4 <fail>

800002c8 <test_24>:
800002c8:	01800193          	addi	x3,x0,24
800002cc:	fff02093          	slti	x1,x0,-1
800002d0:	00000393          	addi	x7,x0,0
800002d4:	02709063          	bne	x1,x7,800002f4 <fail>

800002d8 <test_25>:
800002d8:	01900193          	addi	x3,x0,25
800002dc:	00ff00b7          	lui	x1,0xff0
800002e0:	0ff08093          	addi	x1,x1,255 # ff00ff <_start-0x7f00ff01>
800002e4:	fff0a013          	slti	x0,x1,-1
800002e8:	00000393          	addi	x7,x0,0
800002ec:	00701463          	bne	x0,x7,800002f4 <fail>
800002f0:	00301e63          	bne	x0,x3,8000030c <pass>

800002f4 <fail>:
800002f4:	00018063          	beq	x3,x0,800002f4 <fail>
800002f8:	00119193          	slli	x3,x3,0x1
800002fc:	0011e193          	ori	x3,x3,1
80000300:	05d00893          	addi	x17,x0,93
80000304:	00018513          	addi	x10,x3,0
80000308:	00000073          	ecall

8000030c <pass>:
8000030c:	00100193          	addi	x3,x0,1
80000310:	05d00893          	addi	x17,x0,93
80000314:	00000513          	addi	x10,x0,0
80000318:	00000073          	ecall
8000031c:	c0001073          	unimp
80000320:	0000                	.insn	2, 0x
80000322:	0000                	.insn	2, 0x
80000324:	0000                	.insn	2, 0x
80000326:	0000                	.insn	2, 0x
80000328:	0000                	.insn	2, 0x
8000032a:	0000                	.insn	2, 0x
8000032c:	0000                	.insn	2, 0x
8000032e:	0000                	.insn	2, 0x
80000330:	0000                	.insn	2, 0x
80000332:	0000                	.insn	2, 0x
80000334:	0000                	.insn	2, 0x
80000336:	0000                	.insn	2, 0x
80000338:	0000                	.insn	2, 0x
8000033a:	0000                	.insn	2, 0x
8000033c:	0000                	.insn	2, 0x
8000033e:	0000                	.insn	2, 0x
80000340:	0000                	.insn	2, 0x
80000342:	0000                	.insn	2, 0x
