
rv32um-p-mulhu:     file format elf32-littleriscv


Disassembly of section .text.init:

80000000 <_start>:
80000000:	00000093          	addi	x1,x0,0
80000004:	00000113          	addi	x2,x0,0
80000008:	00000193          	addi	x3,x0,0
8000000c:	00000213          	addi	x4,x0,0
80000010:	00000293          	addi	x5,x0,0
80000014:	00000313          	addi	x6,x0,0
80000018:	00000393          	addi	x7,x0,0
8000001c:	00000413          	addi	x8,x0,0
80000020:	00000493          	addi	x9,x0,0
80000024:	00000513          	addi	x10,x0,0
80000028:	00000593          	addi	x11,x0,0
8000002c:	00000613          	addi	x12,x0,0
80000030:	00000693          	addi	x13,x0,0
80000034:	00000713          	addi	x14,x0,0
80000038:	00000793          	addi	x15,x0,0
8000003c:	00000813          	addi	x16,x0,0
80000040:	00000893          	addi	x17,x0,0
80000044:	00000913          	addi	x18,x0,0
80000048:	00000993          	addi	x19,x0,0
8000004c:	00000a13          	addi	x20,x0,0
80000050:	00000a93          	addi	x21,x0,0
80000054:	00000b13          	addi	x22,x0,0
80000058:	00000b93          	addi	x23,x0,0
8000005c:	00000c13          	addi	x24,x0,0
80000060:	00000c93          	addi	x25,x0,0
80000064:	00000d13          	addi	x26,x0,0
80000068:	00000d93          	addi	x27,x0,0
8000006c:	00000e13          	addi	x28,x0,0
80000070:	00000e93          	addi	x29,x0,0
80000074:	00000f13          	addi	x30,x0,0
80000078:	00000f93          	addi	x31,x0,0
8000007c:	00000193          	addi	x3,x0,0

80000080 <test_2>:
80000080:	00200193          	addi	x3,x0,2
80000084:	00000093          	addi	x1,x0,0
80000088:	00000113          	addi	x2,x0,0
8000008c:	0220b733          	mulhu	x14,x1,x2
80000090:	00000393          	addi	x7,x0,0
80000094:	4a771a63          	bne	x14,x7,80000548 <fail>

80000098 <test_3>:
80000098:	00300193          	addi	x3,x0,3
8000009c:	00100093          	addi	x1,x0,1
800000a0:	00100113          	addi	x2,x0,1
800000a4:	0220b733          	mulhu	x14,x1,x2
800000a8:	00000393          	addi	x7,x0,0
800000ac:	48771e63          	bne	x14,x7,80000548 <fail>

800000b0 <test_4>:
800000b0:	00400193          	addi	x3,x0,4
800000b4:	00300093          	addi	x1,x0,3
800000b8:	00700113          	addi	x2,x0,7
800000bc:	0220b733          	mulhu	x14,x1,x2
800000c0:	00000393          	addi	x7,x0,0
800000c4:	48771263          	bne	x14,x7,80000548 <fail>

800000c8 <test_5>:
800000c8:	00500193          	addi	x3,x0,5
800000cc:	00000093          	addi	x1,x0,0
800000d0:	ffff8137          	lui	x2,0xffff8
800000d4:	0220b733          	mulhu	x14,x1,x2
800000d8:	00000393          	addi	x7,x0,0
800000dc:	46771663          	bne	x14,x7,80000548 <fail>

800000e0 <test_6>:
800000e0:	00600193          	addi	x3,x0,6
800000e4:	800000b7          	lui	x1,0x80000
800000e8:	00000113          	addi	x2,x0,0
800000ec:	0220b733          	mulhu	x14,x1,x2
800000f0:	00000393          	addi	x7,x0,0
800000f4:	44771a63          	bne	x14,x7,80000548 <fail>

800000f8 <test_7>:
800000f8:	00700193          	addi	x3,x0,7
800000fc:	800000b7          	lui	x1,0x80000
80000100:	ffff8137          	lui	x2,0xffff8
80000104:	0220b733          	mulhu	x14,x1,x2
80000108:	7fffc3b7          	lui	x7,0x7fffc
8000010c:	42771e63          	bne	x14,x7,80000548 <fail>

80000110 <test_30>:
80000110:	01e00193          	addi	x3,x0,30
80000114:	aaaab0b7          	lui	x1,0xaaaab
80000118:	aab08093          	addi	x1,x1,-1365 # aaaaaaab <_end+0x2aaa8aab>
8000011c:	00030137          	lui	x2,0x30
80000120:	e7d10113          	addi	x2,x2,-387 # 2fe7d <_start-0x7ffd0183>
80000124:	0220b733          	mulhu	x14,x1,x2
80000128:	000203b7          	lui	x7,0x20
8000012c:	efe38393          	addi	x7,x7,-258 # 1fefe <_start-0x7ffe0102>
80000130:	40771c63          	bne	x14,x7,80000548 <fail>

80000134 <test_31>:
80000134:	01f00193          	addi	x3,x0,31
80000138:	000300b7          	lui	x1,0x30
8000013c:	e7d08093          	addi	x1,x1,-387 # 2fe7d <_start-0x7ffd0183>
80000140:	aaaab137          	lui	x2,0xaaaab
80000144:	aab10113          	addi	x2,x2,-1365 # aaaaaaab <_end+0x2aaa8aab>
80000148:	0220b733          	mulhu	x14,x1,x2
8000014c:	000203b7          	lui	x7,0x20
80000150:	efe38393          	addi	x7,x7,-258 # 1fefe <_start-0x7ffe0102>
80000154:	3e771a63          	bne	x14,x7,80000548 <fail>

80000158 <test_32>:
80000158:	02000193          	addi	x3,x0,32
8000015c:	ff0000b7          	lui	x1,0xff000
80000160:	ff000137          	lui	x2,0xff000
80000164:	0220b733          	mulhu	x14,x1,x2
80000168:	fe0103b7          	lui	x7,0xfe010
8000016c:	3c771e63          	bne	x14,x7,80000548 <fail>

80000170 <test_33>:
80000170:	02100193          	addi	x3,x0,33
80000174:	fff00093          	addi	x1,x0,-1
80000178:	fff00113          	addi	x2,x0,-1
8000017c:	0220b733          	mulhu	x14,x1,x2
80000180:	ffe00393          	addi	x7,x0,-2
80000184:	3c771263          	bne	x14,x7,80000548 <fail>

80000188 <test_34>:
80000188:	02200193          	addi	x3,x0,34
8000018c:	fff00093          	addi	x1,x0,-1
80000190:	00100113          	addi	x2,x0,1
80000194:	0220b733          	mulhu	x14,x1,x2
80000198:	00000393          	addi	x7,x0,0
8000019c:	3a771663          	bne	x14,x7,80000548 <fail>

800001a0 <test_35>:
800001a0:	02300193          	addi	x3,x0,35
800001a4:	00100093          	addi	x1,x0,1
800001a8:	fff00113          	addi	x2,x0,-1
800001ac:	0220b733          	mulhu	x14,x1,x2
800001b0:	00000393          	addi	x7,x0,0
800001b4:	38771a63          	bne	x14,x7,80000548 <fail>

800001b8 <test_8>:
800001b8:	00800193          	addi	x3,x0,8
800001bc:	00d000b7          	lui	x1,0xd00
800001c0:	00b00137          	lui	x2,0xb00
800001c4:	0220b0b3          	mulhu	x1,x1,x2
800001c8:	000093b7          	lui	x7,0x9
800001cc:	f0038393          	addi	x7,x7,-256 # 8f00 <_start-0x7fff7100>
800001d0:	36709c63          	bne	x1,x7,80000548 <fail>

800001d4 <test_9>:
800001d4:	00900193          	addi	x3,x0,9
800001d8:	00e000b7          	lui	x1,0xe00
800001dc:	00b00137          	lui	x2,0xb00
800001e0:	0220b133          	mulhu	x2,x1,x2
800001e4:	0000a3b7          	lui	x7,0xa
800001e8:	a0038393          	addi	x7,x7,-1536 # 9a00 <_start-0x7fff6600>
800001ec:	34711e63          	bne	x2,x7,80000548 <fail>

800001f0 <test_10>:
800001f0:	00a00193          	addi	x3,x0,10
800001f4:	00d000b7          	lui	x1,0xd00
800001f8:	0210b0b3          	mulhu	x1,x1,x1
800001fc:	0000b3b7          	lui	x7,0xb
80000200:	90038393          	addi	x7,x7,-1792 # a900 <_start-0x7fff5700>
80000204:	34709263          	bne	x1,x7,80000548 <fail>

80000208 <test_11>:
80000208:	00b00193          	addi	x3,x0,11
8000020c:	00000213          	addi	x4,x0,0
80000210:	00d000b7          	lui	x1,0xd00
80000214:	00b00137          	lui	x2,0xb00
80000218:	0220b733          	mulhu	x14,x1,x2
8000021c:	00070313          	addi	x6,x14,0
80000220:	00120213          	addi	x4,x4,1 # 1 <_start-0x7fffffff>
80000224:	00200293          	addi	x5,x0,2
80000228:	fe5214e3          	bne	x4,x5,80000210 <test_11+0x8>
8000022c:	000093b7          	lui	x7,0x9
80000230:	f0038393          	addi	x7,x7,-256 # 8f00 <_start-0x7fff7100>
80000234:	30731a63          	bne	x6,x7,80000548 <fail>

80000238 <test_12>:
80000238:	00c00193          	addi	x3,x0,12
8000023c:	00000213          	addi	x4,x0,0
80000240:	00e000b7          	lui	x1,0xe00
80000244:	00b00137          	lui	x2,0xb00
80000248:	0220b733          	mulhu	x14,x1,x2
8000024c:	00000013          	addi	x0,x0,0
80000250:	00070313          	addi	x6,x14,0
80000254:	00120213          	addi	x4,x4,1 # 1 <_start-0x7fffffff>
80000258:	00200293          	addi	x5,x0,2
8000025c:	fe5212e3          	bne	x4,x5,80000240 <test_12+0x8>
80000260:	0000a3b7          	lui	x7,0xa
80000264:	a0038393          	addi	x7,x7,-1536 # 9a00 <_start-0x7fff6600>
80000268:	2e731063          	bne	x6,x7,80000548 <fail>

8000026c <test_13>:
8000026c:	00d00193          	addi	x3,x0,13
80000270:	00000213          	addi	x4,x0,0
80000274:	00f000b7          	lui	x1,0xf00
80000278:	00b00137          	lui	x2,0xb00
8000027c:	0220b733          	mulhu	x14,x1,x2
80000280:	00000013          	addi	x0,x0,0
80000284:	00000013          	addi	x0,x0,0
80000288:	00070313          	addi	x6,x14,0
8000028c:	00120213          	addi	x4,x4,1 # 1 <_start-0x7fffffff>
80000290:	00200293          	addi	x5,x0,2
80000294:	fe5210e3          	bne	x4,x5,80000274 <test_13+0x8>
80000298:	0000a3b7          	lui	x7,0xa
8000029c:	50038393          	addi	x7,x7,1280 # a500 <_start-0x7fff5b00>
800002a0:	2a731463          	bne	x6,x7,80000548 <fail>

800002a4 <test_14>:
800002a4:	00e00193          	addi	x3,x0,14
800002a8:	00000213          	addi	x4,x0,0
800002ac:	00d000b7          	lui	x1,0xd00
800002b0:	00b00137          	lui	x2,0xb00
800002b4:	0220b733          	mulhu	x14,x1,x2
800002b8:	00120213          	addi	x4,x4,1 # 1 <_start-0x7fffffff>
800002bc:	00200293          	addi	x5,x0,2
800002c0:	fe5216e3          	bne	x4,x5,800002ac <test_14+0x8>
800002c4:	000093b7          	lui	x7,0x9
800002c8:	f0038393          	addi	x7,x7,-256 # 8f00 <_start-0x7fff7100>
800002cc:	26771e63          	bne	x14,x7,80000548 <fail>

800002d0 <test_15>:
800002d0:	00f00193          	addi	x3,x0,15
800002d4:	00000213          	addi	x4,x0,0
800002d8:	00e000b7          	lui	x1,0xe00
800002dc:	00b00137          	lui	x2,0xb00
800002e0:	00000013          	addi	x0,x0,0
800002e4:	0220b733          	mulhu	x14,x1,x2
800002e8:	00120213          	addi	x4,x4,1 # 1 <_start-0x7fffffff>
800002ec:	00200293          	addi	x5,x0,2
800002f0:	fe5214e3          	bne	x4,x5,800002d8 <test_15+0x8>
800002f4:	0000a3b7          	lui	x7,0xa
800002f8:	a0038393          	addi	x7,x7,-1536 # 9a00 <_start-0x7fff6600>
800002fc:	24771663          	bne	x14,x7,80000548 <fail>

80000300 <test_16>:
80000300:	01000193          	addi	x3,x0,16
80000304:	00000213          	addi	x4,x0,0
80000308:	00f000b7          	lui	x1,0xf00
8000030c:	00b00137          	lui	x2,0xb00
80000310:	00000013          	addi	x0,x0,0
80000314:	00000013          	addi	x0,x0,0
80000318:	0220b733          	mulhu	x14,x1,x2
8000031c:	00120213          	addi	x4,x4,1 # 1 <_start-0x7fffffff>
80000320:	00200293          	addi	x5,x0,2
80000324:	fe5212e3          	bne	x4,x5,80000308 <test_16+0x8>
80000328:	0000a3b7          	lui	x7,0xa
8000032c:	50038393          	addi	x7,x7,1280 # a500 <_start-0x7fff5b00>
80000330:	20771c63          	bne	x14,x7,80000548 <fail>

80000334 <test_17>:
80000334:	01100193          	addi	x3,x0,17
80000338:	00000213          	addi	x4,x0,0
8000033c:	00d000b7          	lui	x1,0xd00
80000340:	00000013          	addi	x0,x0,0
80000344:	00b00137          	lui	x2,0xb00
80000348:	0220b733          	mulhu	x14,x1,x2
8000034c:	00120213          	addi	x4,x4,1 # 1 <_start-0x7fffffff>
80000350:	00200293          	addi	x5,x0,2
80000354:	fe5214e3          	bne	x4,x5,8000033c <test_17+0x8>
80000358:	000093b7          	lui	x7,0x9
8000035c:	f0038393          	addi	x7,x7,-256 # 8f00 <_start-0x7fff7100>
80000360:	1e771463          	bne	x14,x7,80000548 <fail>

80000364 <test_18>:
80000364:	01200193          	addi	x3,x0,18
80000368:	00000213          	addi	x4,x0,0
8000036c:	00e000b7          	lui	x1,0xe00
80000370:	00000013          	addi	x0,x0,0
80000374:	00b00137          	lui	x2,0xb00
80000378:	00000013          	addi	x0,x0,0
8000037c:	0220b733          	mulhu	x14,x1,x2
80000380:	00120213          	addi	x4,x4,1 # 1 <_start-0x7fffffff>
80000384:	00200293          	addi	x5,x0,2
80000388:	fe5212e3          	bne	x4,x5,8000036c <test_18+0x8>
8000038c:	0000a3b7          	lui	x7,0xa
80000390:	a0038393          	addi	x7,x7,-1536 # 9a00 <_start-0x7fff6600>
80000394:	1a771a63          	bne	x14,x7,80000548 <fail>

80000398 <test_19>:
80000398:	01300193          	addi	x3,x0,19
8000039c:	00000213          	addi	x4,x0,0
800003a0:	00f000b7          	lui	x1,0xf00
800003a4:	00000013          	addi	x0,x0,0
800003a8:	00000013          	addi	x0,x0,0
800003ac:	00b00137          	lui	x2,0xb00
800003b0:	0220b733          	mulhu	x14,x1,x2
800003b4:	00120213          	addi	x4,x4,1 # 1 <_start-0x7fffffff>
800003b8:	00200293          	addi	x5,x0,2
800003bc:	fe5212e3          	bne	x4,x5,800003a0 <test_19+0x8>
800003c0:	0000a3b7          	lui	x7,0xa
800003c4:	50038393          	addi	x7,x7,1280 # a500 <_start-0x7fff5b00>
800003c8:	18771063          	bne	x14,x7,80000548 <fail>

800003cc <test_20>:
800003cc:	01400193          	addi	x3,x0,20
800003d0:	00000213          	addi	x4,x0,0
800003d4:	00b00137          	lui	x2,0xb00
800003d8:	00d000b7          	lui	x1,0xd00
800003dc:	0220b733          	mulhu	x14,x1,x2
800003e0:	00120213          	addi	x4,x4,1 # 1 <_start-0x7fffffff>
800003e4:	00200293          	addi	x5,x0,2
800003e8:	fe5216e3          	bne	x4,x5,800003d4 <test_20+0x8>
800003ec:	000093b7          	lui	x7,0x9
800003f0:	f0038393          	addi	x7,x7,-256 # 8f00 <_start-0x7fff7100>
800003f4:	14771a63          	bne	x14,x7,80000548 <fail>

800003f8 <test_21>:
800003f8:	01500193          	addi	x3,x0,21
800003fc:	00000213          	addi	x4,x0,0
80000400:	00b00137          	lui	x2,0xb00
80000404:	00e000b7          	lui	x1,0xe00
80000408:	00000013          	addi	x0,x0,0
8000040c:	0220b733          	mulhu	x14,x1,x2
80000410:	00120213          	addi	x4,x4,1 # 1 <_start-0x7fffffff>
80000414:	00200293          	addi	x5,x0,2
80000418:	fe5214e3          	bne	x4,x5,80000400 <test_21+0x8>
8000041c:	0000a3b7          	lui	x7,0xa
80000420:	a0038393          	addi	x7,x7,-1536 # 9a00 <_start-0x7fff6600>
80000424:	12771263          	bne	x14,x7,80000548 <fail>

80000428 <test_22>:
80000428:	01600193          	addi	x3,x0,22
8000042c:	00000213          	addi	x4,x0,0
80000430:	00b00137          	lui	x2,0xb00
80000434:	00f000b7          	lui	x1,0xf00
80000438:	00000013          	addi	x0,x0,0
8000043c:	00000013          	addi	x0,x0,0
80000440:	0220b733          	mulhu	x14,x1,x2
80000444:	00120213          	addi	x4,x4,1 # 1 <_start-0x7fffffff>
80000448:	00200293          	addi	x5,x0,2
8000044c:	fe5212e3          	bne	x4,x5,80000430 <test_22+0x8>
80000450:	0000a3b7          	lui	x7,0xa
80000454:	50038393          	addi	x7,x7,1280 # a500 <_start-0x7fff5b00>
80000458:	0e771863          	bne	x14,x7,80000548 <fail>

8000045c <test_23>:
8000045c:	01700193          	addi	x3,x0,23
80000460:	00000213          	addi	x4,x0,0
80000464:	00b00137          	lui	x2,0xb00
80000468:	00000013          	addi	x0,x0,0
8000046c:	00d000b7          	lui	x1,0xd00
80000470:	0220b733          	mulhu	x14,x1,x2
80000474:	00120213          	addi	x4,x4,1 # 1 <_start-0x7fffffff>
80000478:	00200293          	addi	x5,x0,2
8000047c:	fe5214e3          	bne	x4,x5,80000464 <test_23+0x8>
80000480:	000093b7          	lui	x7,0x9
80000484:	f0038393          	addi	x7,x7,-256 # 8f00 <_start-0x7fff7100>
80000488:	0c771063          	bne	x14,x7,80000548 <fail>

8000048c <test_24>:
8000048c:	01800193          	addi	x3,x0,24
80000490:	00000213          	addi	x4,x0,0
80000494:	00b00137          	lui	x2,0xb00
80000498:	00000013          	addi	x0,x0,0
8000049c:	00e000b7          	lui	x1,0xe00
800004a0:	00000013          	addi	x0,x0,0
800004a4:	0220b733          	mulhu	x14,x1,x2
800004a8:	00120213          	addi	x4,x4,1 # 1 <_start-0x7fffffff>
800004ac:	00200293          	addi	x5,x0,2
800004b0:	fe5212e3          	bne	x4,x5,80000494 <test_24+0x8>
800004b4:	0000a3b7          	lui	x7,0xa
800004b8:	a0038393          	addi	x7,x7,-1536 # 9a00 <_start-0x7fff6600>
800004bc:	08771663          	bne	x14,x7,80000548 <fail>

800004c0 <test_25>:
800004c0:	01900193          	addi	x3,x0,25
800004c4:	00000213          	addi	x4,x0,0
800004c8:	00b00137          	lui	x2,0xb00
800004cc:	00000013          	addi	x0,x0,0
800004d0:	00000013          	addi	x0,x0,0
800004d4:	00f000b7          	lui	x1,0xf00
800004d8:	0220b733          	mulhu	x14,x1,x2
800004dc:	00120213          	addi	x4,x4,1 # 1 <_start-0x7fffffff>
800004e0:	00200293          	addi	x5,x0,2
800004e4:	fe5212e3          	bne	x4,x5,800004c8 <test_25+0x8>
800004e8:	0000a3b7          	lui	x7,0xa
800004ec:	50038393          	addi	x7,x7,1280 # a500 <_start-0x7fff5b00>
800004f0:	04771c63          	bne	x14,x7,80000548 <fail>

800004f4 <test_26>:
800004f4:	01a00193          	addi	x3,x0,26
800004f8:	7c0000b7          	lui	x1,0x7c000
800004fc:	02103133          	mulhu	x2,x0,x1
80000500:	00000393          	addi	x7,x0,0
80000504:	04711263          	bne	x2,x7,80000548 <fail>

80000508 <test_27>:
80000508:	01b00193          	addi	x3,x0,27
8000050c:	800000b7          	lui	x1,0x80000
80000510:	0200b133          	mulhu	x2,x1,x0
80000514:	00000393          	addi	x7,x0,0
80000518:	02711863          	bne	x2,x7,80000548 <fail>

8000051c <test_28>:
8000051c:	01c00193          	addi	x3,x0,28
80000520:	020030b3          	mulhu	x1,x0,x0
80000524:	00000393          	addi	x7,x0,0
80000528:	02709063          	bne	x1,x7,80000548 <fail>

8000052c <test_29>:
8000052c:	01d00193          	addi	x3,x0,29
80000530:	021000b7          	lui	x1,0x2100
80000534:	02200137          	lui	x2,0x2200
80000538:	0220b033          	mulhu	x0,x1,x2
8000053c:	00000393          	addi	x7,x0,0
80000540:	00701463          	bne	x0,x7,80000548 <fail>
80000544:	00301e63          	bne	x0,x3,80000560 <pass>

80000548 <fail>:
80000548:	00018063          	beq	x3,x0,80000548 <fail>
8000054c:	00119193          	slli	x3,x3,0x1
80000550:	0011e193          	ori	x3,x3,1
80000554:	05d00893          	addi	x17,x0,93
80000558:	00018513          	addi	x10,x3,0
8000055c:	00000073          	ecall

80000560 <pass>:
80000560:	00100193          	addi	x3,x0,1
80000564:	05d00893          	addi	x17,x0,93
80000568:	00000513          	addi	x10,x0,0
8000056c:	00000073          	ecall
80000570:	c0001073          	unimp
80000574:	0000                	.insn	2, 0x
80000576:	0000                	.insn	2, 0x
80000578:	0000                	.insn	2, 0x
8000057a:	0000                	.insn	2, 0x
8000057c:	0000                	.insn	2, 0x
8000057e:	0000                	.insn	2, 0x
80000580:	0000                	.insn	2, 0x
80000582:	0000                	.insn	2, 0x
