
rv32ui-p-slli:     file format elf32-littleriscv


Disassembly of section .text.init:

80000000 <_start>:
80000000:	00000093          	addi	x1,x0,0
80000004:	00000113          	addi	x2,x0,0
80000008:	00000193          	addi	x3,x0,0
8000000c:	00000213          	addi	x4,x0,0
80000010:	00000293          	addi	x5,x0,0
80000014:	00000313          	addi	x6,x0,0
80000018:	00000393          	addi	x7,x0,0
8000001c:	00000413          	addi	x8,x0,0
80000020:	00000493          	addi	x9,x0,0
80000024:	00000513          	addi	x10,x0,0
80000028:	00000593          	addi	x11,x0,0
8000002c:	00000613          	addi	x12,x0,0
80000030:	00000693          	addi	x13,x0,0
80000034:	00000713          	addi	x14,x0,0
80000038:	00000793          	addi	x15,x0,0
8000003c:	00000813          	addi	x16,x0,0
80000040:	00000893          	addi	x17,x0,0
80000044:	00000913          	addi	x18,x0,0
80000048:	00000993          	addi	x19,x0,0
8000004c:	00000a13          	addi	x20,x0,0
80000050:	00000a93          	addi	x21,x0,0
80000054:	00000b13          	addi	x22,x0,0
80000058:	00000b93          	addi	x23,x0,0
8000005c:	00000c13          	addi	x24,x0,0
80000060:	00000c93          	addi	x25,x0,0
80000064:	00000d13          	addi	x26,x0,0
80000068:	00000d93          	addi	x27,x0,0
8000006c:	00000e13          	addi	x28,x0,0
80000070:	00000e93          	addi	x29,x0,0
80000074:	00000f13          	addi	x30,x0,0
80000078:	00000f93          	addi	x31,x0,0
8000007c:	00000193          	addi	x3,x0,0

80000080 <test_2>:
80000080:	00200193          	addi	x3,x0,2
80000084:	00100093          	addi	x1,x0,1
80000088:	00009713          	slli	x14,x1,0x0
8000008c:	00100393          	addi	x7,x0,1
80000090:	26771a63          	bne	x14,x7,80000304 <fail>

80000094 <test_3>:
80000094:	00300193          	addi	x3,x0,3
80000098:	00100093          	addi	x1,x0,1
8000009c:	00109713          	slli	x14,x1,0x1
800000a0:	00200393          	addi	x7,x0,2
800000a4:	26771063          	bne	x14,x7,80000304 <fail>

800000a8 <test_4>:
800000a8:	00400193          	addi	x3,x0,4
800000ac:	00100093          	addi	x1,x0,1
800000b0:	00709713          	slli	x14,x1,0x7
800000b4:	08000393          	addi	x7,x0,128
800000b8:	24771663          	bne	x14,x7,80000304 <fail>

800000bc <test_5>:
800000bc:	00500193          	addi	x3,x0,5
800000c0:	00100093          	addi	x1,x0,1
800000c4:	00e09713          	slli	x14,x1,0xe
800000c8:	000043b7          	lui	x7,0x4
800000cc:	22771c63          	bne	x14,x7,80000304 <fail>

800000d0 <test_6>:
800000d0:	00600193          	addi	x3,x0,6
800000d4:	00100093          	addi	x1,x0,1
800000d8:	01f09713          	slli	x14,x1,0x1f
800000dc:	800003b7          	lui	x7,0x80000
800000e0:	22771263          	bne	x14,x7,80000304 <fail>

800000e4 <test_7>:
800000e4:	00700193          	addi	x3,x0,7
800000e8:	fff00093          	addi	x1,x0,-1
800000ec:	00009713          	slli	x14,x1,0x0
800000f0:	fff00393          	addi	x7,x0,-1
800000f4:	20771863          	bne	x14,x7,80000304 <fail>

800000f8 <test_8>:
800000f8:	00800193          	addi	x3,x0,8
800000fc:	fff00093          	addi	x1,x0,-1
80000100:	00109713          	slli	x14,x1,0x1
80000104:	ffe00393          	addi	x7,x0,-2
80000108:	1e771e63          	bne	x14,x7,80000304 <fail>

8000010c <test_9>:
8000010c:	00900193          	addi	x3,x0,9
80000110:	fff00093          	addi	x1,x0,-1
80000114:	00709713          	slli	x14,x1,0x7
80000118:	f8000393          	addi	x7,x0,-128
8000011c:	1e771463          	bne	x14,x7,80000304 <fail>

80000120 <test_10>:
80000120:	00a00193          	addi	x3,x0,10
80000124:	fff00093          	addi	x1,x0,-1
80000128:	00e09713          	slli	x14,x1,0xe
8000012c:	ffffc3b7          	lui	x7,0xffffc
80000130:	1c771a63          	bne	x14,x7,80000304 <fail>

80000134 <test_11>:
80000134:	00b00193          	addi	x3,x0,11
80000138:	fff00093          	addi	x1,x0,-1
8000013c:	01f09713          	slli	x14,x1,0x1f
80000140:	800003b7          	lui	x7,0x80000
80000144:	1c771063          	bne	x14,x7,80000304 <fail>

80000148 <test_12>:
80000148:	00c00193          	addi	x3,x0,12
8000014c:	212120b7          	lui	x1,0x21212
80000150:	12108093          	addi	x1,x1,289 # 21212121 <_start-0x5edededf>
80000154:	00009713          	slli	x14,x1,0x0
80000158:	212123b7          	lui	x7,0x21212
8000015c:	12138393          	addi	x7,x7,289 # 21212121 <_start-0x5edededf>
80000160:	1a771263          	bne	x14,x7,80000304 <fail>

80000164 <test_13>:
80000164:	00d00193          	addi	x3,x0,13
80000168:	212120b7          	lui	x1,0x21212
8000016c:	12108093          	addi	x1,x1,289 # 21212121 <_start-0x5edededf>
80000170:	00109713          	slli	x14,x1,0x1
80000174:	424243b7          	lui	x7,0x42424
80000178:	24238393          	addi	x7,x7,578 # 42424242 <_start-0x3dbdbdbe>
8000017c:	18771463          	bne	x14,x7,80000304 <fail>

80000180 <test_14>:
80000180:	00e00193          	addi	x3,x0,14
80000184:	212120b7          	lui	x1,0x21212
80000188:	12108093          	addi	x1,x1,289 # 21212121 <_start-0x5edededf>
8000018c:	00709713          	slli	x14,x1,0x7
80000190:	909093b7          	lui	x7,0x90909
80000194:	08038393          	addi	x7,x7,128 # 90909080 <_end+0x10907080>
80000198:	16771663          	bne	x14,x7,80000304 <fail>

8000019c <test_15>:
8000019c:	00f00193          	addi	x3,x0,15
800001a0:	212120b7          	lui	x1,0x21212
800001a4:	12108093          	addi	x1,x1,289 # 21212121 <_start-0x5edededf>
800001a8:	00e09713          	slli	x14,x1,0xe
800001ac:	484843b7          	lui	x7,0x48484
800001b0:	14771a63          	bne	x14,x7,80000304 <fail>

800001b4 <test_16>:
800001b4:	01000193          	addi	x3,x0,16
800001b8:	212120b7          	lui	x1,0x21212
800001bc:	12108093          	addi	x1,x1,289 # 21212121 <_start-0x5edededf>
800001c0:	01f09713          	slli	x14,x1,0x1f
800001c4:	800003b7          	lui	x7,0x80000
800001c8:	12771e63          	bne	x14,x7,80000304 <fail>

800001cc <test_17>:
800001cc:	01100193          	addi	x3,x0,17
800001d0:	00100093          	addi	x1,x0,1
800001d4:	00709093          	slli	x1,x1,0x7
800001d8:	08000393          	addi	x7,x0,128
800001dc:	12709463          	bne	x1,x7,80000304 <fail>

800001e0 <test_18>:
800001e0:	01200193          	addi	x3,x0,18
800001e4:	00000213          	addi	x4,x0,0
800001e8:	00100093          	addi	x1,x0,1
800001ec:	00709713          	slli	x14,x1,0x7
800001f0:	00070313          	addi	x6,x14,0
800001f4:	00120213          	addi	x4,x4,1 # 1 <_start-0x7fffffff>
800001f8:	00200293          	addi	x5,x0,2
800001fc:	fe5216e3          	bne	x4,x5,800001e8 <test_18+0x8>
80000200:	08000393          	addi	x7,x0,128
80000204:	10731063          	bne	x6,x7,80000304 <fail>

80000208 <test_19>:
80000208:	01300193          	addi	x3,x0,19
8000020c:	00000213          	addi	x4,x0,0
80000210:	00100093          	addi	x1,x0,1
80000214:	00e09713          	slli	x14,x1,0xe
80000218:	00000013          	addi	x0,x0,0
8000021c:	00070313          	addi	x6,x14,0
80000220:	00120213          	addi	x4,x4,1 # 1 <_start-0x7fffffff>
80000224:	00200293          	addi	x5,x0,2
80000228:	fe5214e3          	bne	x4,x5,80000210 <test_19+0x8>
8000022c:	000043b7          	lui	x7,0x4
80000230:	0c731a63          	bne	x6,x7,80000304 <fail>

80000234 <test_20>:
80000234:	01400193          	addi	x3,x0,20
80000238:	00000213          	addi	x4,x0,0
8000023c:	00100093          	addi	x1,x0,1
80000240:	01f09713          	slli	x14,x1,0x1f
80000244:	00000013          	addi	x0,x0,0
80000248:	00000013          	addi	x0,x0,0
8000024c:	00070313          	addi	x6,x14,0
80000250:	00120213          	addi	x4,x4,1 # 1 <_start-0x7fffffff>
80000254:	00200293          	addi	x5,x0,2
80000258:	fe5212e3          	bne	x4,x5,8000023c <test_20+0x8>
8000025c:	800003b7          	lui	x7,0x80000
80000260:	0a731263          	bne	x6,x7,80000304 <fail>

80000264 <test_21>:
80000264:	01500193          	addi	x3,x0,21
80000268:	00000213          	addi	x4,x0,0
8000026c:	00100093          	addi	x1,x0,1
80000270:	00709713          	slli	x14,x1,0x7
80000274:	00120213          	addi	x4,x4,1 # 1 <_start-0x7fffffff>
80000278:	00200293          	addi	x5,x0,2
8000027c:	fe5218e3          	bne	x4,x5,8000026c <test_21+0x8>
80000280:	08000393          	addi	x7,x0,128
80000284:	08771063          	bne	x14,x7,80000304 <fail>

80000288 <test_22>:
80000288:	01600193          	addi	x3,x0,22
8000028c:	00000213          	addi	x4,x0,0
80000290:	00100093          	addi	x1,x0,1
80000294:	00000013          	addi	x0,x0,0
80000298:	00e09713          	slli	x14,x1,0xe
8000029c:	00120213          	addi	x4,x4,1 # 1 <_start-0x7fffffff>
800002a0:	00200293          	addi	x5,x0,2
800002a4:	fe5216e3          	bne	x4,x5,80000290 <test_22+0x8>
800002a8:	000043b7          	lui	x7,0x4
800002ac:	04771c63          	bne	x14,x7,80000304 <fail>

800002b0 <test_23>:
800002b0:	01700193          	addi	x3,x0,23
800002b4:	00000213          	addi	x4,x0,0
800002b8:	00100093          	addi	x1,x0,1
800002bc:	00000013          	addi	x0,x0,0
800002c0:	00000013          	addi	x0,x0,0
800002c4:	01f09713          	slli	x14,x1,0x1f
800002c8:	00120213          	addi	x4,x4,1 # 1 <_start-0x7fffffff>
800002cc:	00200293          	addi	x5,x0,2
800002d0:	fe5214e3          	bne	x4,x5,800002b8 <test_23+0x8>
800002d4:	800003b7          	lui	x7,0x80000
800002d8:	02771663          	bne	x14,x7,80000304 <fail>

800002dc <test_24>:
800002dc:	01800193          	addi	x3,x0,24
800002e0:	01f01093          	slli	x1,x0,0x1f
800002e4:	00000393          	addi	x7,x0,0
800002e8:	00709e63          	bne	x1,x7,80000304 <fail>

800002ec <test_25>:
800002ec:	01900193          	addi	x3,x0,25
800002f0:	02100093          	addi	x1,x0,33
800002f4:	01409013          	slli	x0,x1,0x14
800002f8:	00000393          	addi	x7,x0,0
800002fc:	00701463          	bne	x0,x7,80000304 <fail>
80000300:	00301e63          	bne	x0,x3,8000031c <pass>

80000304 <fail>:
80000304:	00018063          	beq	x3,x0,80000304 <fail>
80000308:	00119193          	slli	x3,x3,0x1
8000030c:	0011e193          	ori	x3,x3,1
80000310:	05d00893          	addi	x17,x0,93
80000314:	00018513          	addi	x10,x3,0
80000318:	00000073          	ecall

8000031c <pass>:
8000031c:	00100193          	addi	x3,x0,1
80000320:	05d00893          	addi	x17,x0,93
80000324:	00000513          	addi	x10,x0,0
80000328:	00000073          	ecall
8000032c:	c0001073          	unimp
80000330:	0000                	.insn	2, 0x
80000332:	0000                	.insn	2, 0x
80000334:	0000                	.insn	2, 0x
80000336:	0000                	.insn	2, 0x
80000338:	0000                	.insn	2, 0x
8000033a:	0000                	.insn	2, 0x
8000033c:	0000                	.insn	2, 0x
8000033e:	0000                	.insn	2, 0x
80000340:	0000                	.insn	2, 0x
80000342:	0000                	.insn	2, 0x
