
rv32ui-p-ma_data:     file format elf32-littleriscv


Disassembly of section .text.init:

80000000 <_start>:
80000000:	00000093          	li	x1,0
80000004:	00000113          	li	x2,0
80000008:	00000193          	li	x3,0
8000000c:	00000213          	li	x4,0
80000010:	00000293          	li	x5,0
80000014:	00000313          	li	x6,0
80000018:	00000393          	li	x7,0
8000001c:	00000413          	li	x8,0
80000020:	00000493          	li	x9,0
80000024:	00000513          	li	x10,0
80000028:	00000593          	li	x11,0
8000002c:	00000613          	li	x12,0
80000030:	00000693          	li	x13,0
80000034:	00000713          	li	x14,0
80000038:	00000793          	li	x15,0
8000003c:	00000813          	li	x16,0
80000040:	00000893          	li	x17,0
80000044:	00000913          	li	x18,0
80000048:	00000993          	li	x19,0
8000004c:	00000a13          	li	x20,0
80000050:	00000a93          	li	x21,0
80000054:	00000b13          	li	x22,0
80000058:	00000b93          	li	x23,0
8000005c:	00000c13          	li	x24,0
80000060:	00000c93          	li	x25,0
80000064:	00000d13          	li	x26,0
80000068:	00000d93          	li	x27,0
8000006c:	00000e13          	li	x28,0
80000070:	00000e93          	li	x29,0
80000074:	00000f13          	li	x30,0
80000078:	00000f93          	li	x31,0
8000007c:	00000193          	li	x3,0
80000080:	00002417          	auipc	x8,0x2
80000084:	f8040413          	add	x8,x8,-128 # 80002000 <begin_signature>
80000088:	00100193          	li	x3,1
8000008c:	20100313          	li	x6,513
80000090:	00141383          	lh	x7,1(x8)
80000094:	52731c63          	bne	x6,x7,800005cc <fail>
80000098:	00200193          	li	x3,2
8000009c:	20100313          	li	x6,513
800000a0:	00145383          	lhu	x7,1(x8)
800000a4:	52731463          	bne	x6,x7,800005cc <fail>
800000a8:	00300193          	li	x3,3
800000ac:	04030337          	lui	x6,0x4030
800000b0:	20130313          	add	x6,x6,513 # 4030201 <_start-0x7bfcfdff>
800000b4:	00142383          	lw	x7,1(x8)
800000b8:	50731a63          	bne	x6,x7,800005cc <fail>
800000bc:	00400193          	li	x3,4
800000c0:	05040337          	lui	x6,0x5040
800000c4:	30230313          	add	x6,x6,770 # 5040302 <_start-0x7afbfcfe>
800000c8:	00242383          	lw	x7,2(x8)
800000cc:	50731063          	bne	x6,x7,800005cc <fail>
800000d0:	00500193          	li	x3,5
800000d4:	06050337          	lui	x6,0x6050
800000d8:	40330313          	add	x6,x6,1027 # 6050403 <_start-0x79fafbfd>
800000dc:	00342383          	lw	x7,3(x8)
800000e0:	4e731663          	bne	x6,x7,800005cc <fail>
800000e4:	01000193          	li	x3,16
800000e8:	00002337          	lui	x6,0x2
800000ec:	01f30313          	add	x6,x6,31 # 201f <_start-0x7fffdfe1>
800000f0:	01f41383          	lh	x7,31(x8)
800000f4:	4c731c63          	bne	x6,x7,800005cc <fail>
800000f8:	01100193          	li	x3,17
800000fc:	00002337          	lui	x6,0x2
80000100:	01f30313          	add	x6,x6,31 # 201f <_start-0x7fffdfe1>
80000104:	01f45383          	lhu	x7,31(x8)
80000108:	4c731263          	bne	x6,x7,800005cc <fail>
8000010c:	01200193          	li	x3,18
80000110:	201f2337          	lui	x6,0x201f2
80000114:	e1d30313          	add	x6,x6,-483 # 201f1e1d <_start-0x5fe0e1e3>
80000118:	01d42383          	lw	x7,29(x8)
8000011c:	4a731863          	bne	x6,x7,800005cc <fail>
80000120:	01300193          	li	x3,19
80000124:	21202337          	lui	x6,0x21202
80000128:	f1e30313          	add	x6,x6,-226 # 21201f1e <_start-0x5edfe0e2>
8000012c:	01e42383          	lw	x7,30(x8)
80000130:	48731e63          	bne	x6,x7,800005cc <fail>
80000134:	01400193          	li	x3,20
80000138:	22212337          	lui	x6,0x22212
8000013c:	01f30313          	add	x6,x6,31 # 2221201f <_start-0x5ddedfe1>
80000140:	01f42383          	lw	x7,31(x8)
80000144:	48731463          	bne	x6,x7,800005cc <fail>
80000148:	01f00193          	li	x3,31
8000014c:	00004337          	lui	x6,0x4
80000150:	03f30313          	add	x6,x6,63 # 403f <_start-0x7fffbfc1>
80000154:	03f41383          	lh	x7,63(x8)
80000158:	46731a63          	bne	x6,x7,800005cc <fail>
8000015c:	02000193          	li	x3,32
80000160:	00004337          	lui	x6,0x4
80000164:	03f30313          	add	x6,x6,63 # 403f <_start-0x7fffbfc1>
80000168:	03f45383          	lhu	x7,63(x8)
8000016c:	46731063          	bne	x6,x7,800005cc <fail>
80000170:	02100193          	li	x3,33
80000174:	403f4337          	lui	x6,0x403f4
80000178:	e3d30313          	add	x6,x6,-451 # 403f3e3d <_start-0x3fc0c1c3>
8000017c:	03d42383          	lw	x7,61(x8)
80000180:	44731663          	bne	x6,x7,800005cc <fail>
80000184:	02200193          	li	x3,34
80000188:	41404337          	lui	x6,0x41404
8000018c:	f3e30313          	add	x6,x6,-194 # 41403f3e <_start-0x3ebfc0c2>
80000190:	03e42383          	lw	x7,62(x8)
80000194:	42731c63          	bne	x6,x7,800005cc <fail>
80000198:	02300193          	li	x3,35
8000019c:	42414337          	lui	x6,0x42414
800001a0:	03f30313          	add	x6,x6,63 # 4241403f <_start-0x3dbebfc1>
800001a4:	03f42383          	lw	x7,63(x8)
800001a8:	42731263          	bne	x6,x7,800005cc <fail>
800001ac:	02e00193          	li	x3,46
800001b0:	ffff8337          	lui	x6,0xffff8
800001b4:	18030313          	add	x6,x6,384 # ffff8180 <_end+0x7fff6000>
800001b8:	006410a3          	sh	x6,1(x8)
800001bc:	00141383          	lh	x7,1(x8)
800001c0:	40731663          	bne	x6,x7,800005cc <fail>
800001c4:	02f00193          	li	x3,47
800001c8:	00008337          	lui	x6,0x8
800001cc:	38230313          	add	x6,x6,898 # 8382 <_start-0x7fff7c7e>
800001d0:	006410a3          	sh	x6,1(x8)
800001d4:	00145383          	lhu	x7,1(x8)
800001d8:	3e731a63          	bne	x6,x7,800005cc <fail>
800001dc:	03000193          	li	x3,48
800001e0:	87868337          	lui	x6,0x87868
800001e4:	58430313          	add	x6,x6,1412 # 87868584 <_end+0x7866404>
800001e8:	006420a3          	sw	x6,1(x8)
800001ec:	00142383          	lw	x7,1(x8)
800001f0:	3c731e63          	bne	x6,x7,800005cc <fail>
800001f4:	03100193          	li	x3,49
800001f8:	8b8a9337          	lui	x6,0x8b8a9
800001fc:	98830313          	add	x6,x6,-1656 # 8b8a8988 <_end+0xb8a6808>
80000200:	00642123          	sw	x6,2(x8)
80000204:	00242383          	lw	x7,2(x8)
80000208:	3c731263          	bne	x6,x7,800005cc <fail>
8000020c:	03200193          	li	x3,50
80000210:	8f8e9337          	lui	x6,0x8f8e9
80000214:	d8c30313          	add	x6,x6,-628 # 8f8e8d8c <_end+0xf8e6c0c>
80000218:	006421a3          	sw	x6,3(x8)
8000021c:	00342383          	lw	x7,3(x8)
80000220:	3a731663          	bne	x6,x7,800005cc <fail>
80000224:	03d00193          	li	x3,61
80000228:	ffffd337          	lui	x6,0xffffd
8000022c:	5d430313          	add	x6,x6,1492 # ffffd5d4 <_end+0x7fffb454>
80000230:	00641fa3          	sh	x6,31(x8)
80000234:	01f41383          	lh	x7,31(x8)
80000238:	38731a63          	bne	x6,x7,800005cc <fail>
8000023c:	03e00193          	li	x3,62
80000240:	0000d337          	lui	x6,0xd
80000244:	7d630313          	add	x6,x6,2006 # d7d6 <_start-0x7fff282a>
80000248:	00641fa3          	sh	x6,31(x8)
8000024c:	01f45383          	lhu	x7,31(x8)
80000250:	36731e63          	bne	x6,x7,800005cc <fail>
80000254:	03f00193          	li	x3,63
80000258:	dbdae337          	lui	x6,0xdbdae
8000025c:	9d830313          	add	x6,x6,-1576 # dbdad9d8 <_end+0x5bdab858>
80000260:	00642ea3          	sw	x6,29(x8)
80000264:	01d42383          	lw	x7,29(x8)
80000268:	36731263          	bne	x6,x7,800005cc <fail>
8000026c:	04000193          	li	x3,64
80000270:	dfdee337          	lui	x6,0xdfdee
80000274:	ddc30313          	add	x6,x6,-548 # dfdedddc <_end+0x5fdebc5c>
80000278:	00642f23          	sw	x6,30(x8)
8000027c:	01e42383          	lw	x7,30(x8)
80000280:	34731663          	bne	x6,x7,800005cc <fail>
80000284:	04100193          	li	x3,65
80000288:	e3e2e337          	lui	x6,0xe3e2e
8000028c:	1e030313          	add	x6,x6,480 # e3e2e1e0 <_end+0x63e2c060>
80000290:	00642fa3          	sw	x6,31(x8)
80000294:	01f42383          	lw	x7,31(x8)
80000298:	32731a63          	bne	x6,x7,800005cc <fail>
8000029c:	04c00193          	li	x3,76
800002a0:	00003337          	lui	x6,0x3
800002a4:	53430313          	add	x6,x6,1332 # 3534 <_start-0x7fffcacc>
800002a8:	02641fa3          	sh	x6,63(x8)
800002ac:	03f41383          	lh	x7,63(x8)
800002b0:	30731e63          	bne	x6,x7,800005cc <fail>
800002b4:	04d00193          	li	x3,77
800002b8:	00003337          	lui	x6,0x3
800002bc:	73630313          	add	x6,x6,1846 # 3736 <_start-0x7fffc8ca>
800002c0:	02641fa3          	sh	x6,63(x8)
800002c4:	03f45383          	lhu	x7,63(x8)
800002c8:	30731263          	bne	x6,x7,800005cc <fail>
800002cc:	04e00193          	li	x3,78
800002d0:	3b3a4337          	lui	x6,0x3b3a4
800002d4:	93830313          	add	x6,x6,-1736 # 3b3a3938 <_start-0x44c5c6c8>
800002d8:	02642ea3          	sw	x6,61(x8)
800002dc:	03d42383          	lw	x7,61(x8)
800002e0:	2e731663          	bne	x6,x7,800005cc <fail>
800002e4:	04f00193          	li	x3,79
800002e8:	3f3e4337          	lui	x6,0x3f3e4
800002ec:	d3c30313          	add	x6,x6,-708 # 3f3e3d3c <_start-0x40c1c2c4>
800002f0:	02642f23          	sw	x6,62(x8)
800002f4:	03e42383          	lw	x7,62(x8)
800002f8:	2c731a63          	bne	x6,x7,800005cc <fail>
800002fc:	05000193          	li	x3,80
80000300:	43424337          	lui	x6,0x43424
80000304:	14030313          	add	x6,x6,320 # 43424140 <_start-0x3cbdbec0>
80000308:	02642fa3          	sw	x6,63(x8)
8000030c:	03f42383          	lw	x7,63(x8)
80000310:	2a731e63          	bne	x6,x7,800005cc <fail>
80000314:	05b00193          	li	x3,91
80000318:	0000a337          	lui	x6,0xa
8000031c:	99830313          	add	x6,x6,-1640 # 9998 <_start-0x7fff6668>
80000320:	f9800393          	li	x7,-104
80000324:	006410a3          	sh	x6,1(x8)
80000328:	00140e03          	lb	x28,1(x8)
8000032c:	2bc39063          	bne	x7,x28,800005cc <fail>
80000330:	05c00193          	li	x3,92
80000334:	0000a337          	lui	x6,0xa
80000338:	b9a30313          	add	x6,x6,-1126 # 9b9a <_start-0x7fff6466>
8000033c:	f9b00393          	li	x7,-101
80000340:	006410a3          	sh	x6,1(x8)
80000344:	00240e03          	lb	x28,2(x8)
80000348:	29c39263          	bne	x7,x28,800005cc <fail>
8000034c:	05d00193          	li	x3,93
80000350:	0000a337          	lui	x6,0xa
80000354:	d9c30313          	add	x6,x6,-612 # 9d9c <_start-0x7fff6264>
80000358:	09c00393          	li	x7,156
8000035c:	006410a3          	sh	x6,1(x8)
80000360:	00144e03          	lbu	x28,1(x8)
80000364:	27c39463          	bne	x7,x28,800005cc <fail>
80000368:	05e00193          	li	x3,94
8000036c:	0000a337          	lui	x6,0xa
80000370:	f9e30313          	add	x6,x6,-98 # 9f9e <_start-0x7fff6062>
80000374:	09f00393          	li	x7,159
80000378:	006410a3          	sh	x6,1(x8)
8000037c:	00244e03          	lbu	x28,2(x8)
80000380:	25c39663          	bne	x7,x28,800005cc <fail>
80000384:	05f00193          	li	x3,95
80000388:	a3a2a337          	lui	x6,0xa3a2a
8000038c:	1a030313          	add	x6,x6,416 # a3a2a1a0 <_end+0x23a28020>
80000390:	fa000393          	li	x7,-96
80000394:	006420a3          	sw	x6,1(x8)
80000398:	00140e03          	lb	x28,1(x8)
8000039c:	23c39863          	bne	x7,x28,800005cc <fail>
800003a0:	06000193          	li	x3,96
800003a4:	a7a6a337          	lui	x6,0xa7a6a
800003a8:	5a430313          	add	x6,x6,1444 # a7a6a5a4 <_end+0x27a68424>
800003ac:	0a500393          	li	x7,165
800003b0:	00642123          	sw	x6,2(x8)
800003b4:	00344e03          	lbu	x28,3(x8)
800003b8:	21c39a63          	bne	x7,x28,800005cc <fail>
800003bc:	06100193          	li	x3,97
800003c0:	abaab337          	lui	x6,0xabaab
800003c4:	9a830313          	add	x6,x6,-1624 # abaaa9a8 <_end+0x2baa8828>
800003c8:	ffffb3b7          	lui	x7,0xffffb
800003cc:	aa938393          	add	x7,x7,-1367 # ffffaaa9 <_end+0x7fff8929>
800003d0:	006421a3          	sw	x6,3(x8)
800003d4:	00441e03          	lh	x28,4(x8)
800003d8:	1fc39a63          	bne	x7,x28,800005cc <fail>
800003dc:	06200193          	li	x3,98
800003e0:	afaeb337          	lui	x6,0xafaeb
800003e4:	dac30313          	add	x6,x6,-596 # afaeadac <_end+0x2fae8c2c>
800003e8:	0000b3b7          	lui	x7,0xb
800003ec:	fae38393          	add	x7,x7,-82 # afae <_start-0x7fff5052>
800003f0:	006421a3          	sw	x6,3(x8)
800003f4:	00545e03          	lhu	x28,5(x8)
800003f8:	1dc39a63          	bne	x7,x28,800005cc <fail>
800003fc:	06a00193          	li	x3,106
80000400:	0000f337          	lui	x6,0xf
80000404:	9e830313          	add	x6,x6,-1560 # e9e8 <_start-0x7fff1618>
80000408:	fe800393          	li	x7,-24
8000040c:	00641fa3          	sh	x6,31(x8)
80000410:	01f40e03          	lb	x28,31(x8)
80000414:	1bc39c63          	bne	x7,x28,800005cc <fail>
80000418:	06b00193          	li	x3,107
8000041c:	0000f337          	lui	x6,0xf
80000420:	bea30313          	add	x6,x6,-1046 # ebea <_start-0x7fff1416>
80000424:	feb00393          	li	x7,-21
80000428:	00641fa3          	sh	x6,31(x8)
8000042c:	02040e03          	lb	x28,32(x8)
80000430:	19c39e63          	bne	x7,x28,800005cc <fail>
80000434:	06c00193          	li	x3,108
80000438:	0000f337          	lui	x6,0xf
8000043c:	dec30313          	add	x6,x6,-532 # edec <_start-0x7fff1214>
80000440:	0ec00393          	li	x7,236
80000444:	00641fa3          	sh	x6,31(x8)
80000448:	01f44e03          	lbu	x28,31(x8)
8000044c:	19c39063          	bne	x7,x28,800005cc <fail>
80000450:	06d00193          	li	x3,109
80000454:	0000f337          	lui	x6,0xf
80000458:	fee30313          	add	x6,x6,-18 # efee <_start-0x7fff1012>
8000045c:	0ef00393          	li	x7,239
80000460:	00641fa3          	sh	x6,31(x8)
80000464:	02044e03          	lbu	x28,32(x8)
80000468:	17c39263          	bne	x7,x28,800005cc <fail>
8000046c:	06e00193          	li	x3,110
80000470:	f3f2f337          	lui	x6,0xf3f2f
80000474:	1f030313          	add	x6,x6,496 # f3f2f1f0 <_end+0x73f2d070>
80000478:	ff000393          	li	x7,-16
8000047c:	00642ea3          	sw	x6,29(x8)
80000480:	01d40e03          	lb	x28,29(x8)
80000484:	15c39463          	bne	x7,x28,800005cc <fail>
80000488:	06f00193          	li	x3,111
8000048c:	f7f6f337          	lui	x6,0xf7f6f
80000490:	5f430313          	add	x6,x6,1524 # f7f6f5f4 <_end+0x77f6d474>
80000494:	0f600393          	li	x7,246
80000498:	00642f23          	sw	x6,30(x8)
8000049c:	02044e03          	lbu	x28,32(x8)
800004a0:	13c39663          	bne	x7,x28,800005cc <fail>
800004a4:	07000193          	li	x3,112
800004a8:	fbfb0337          	lui	x6,0xfbfb0
800004ac:	9f830313          	add	x6,x6,-1544 # fbfaf9f8 <_end+0x7bfad878>
800004b0:	bfa00393          	li	x7,-1030
800004b4:	00642ea3          	sw	x6,29(x8)
800004b8:	01f41e03          	lh	x28,31(x8)
800004bc:	11c39863          	bne	x7,x28,800005cc <fail>
800004c0:	07100193          	li	x3,113
800004c4:	ffff0337          	lui	x6,0xffff0
800004c8:	dfc30313          	add	x6,x6,-516 # fffefdfc <_end+0x7ffedc7c>
800004cc:	000103b7          	lui	x7,0x10
800004d0:	dfc38393          	add	x7,x7,-516 # fdfc <_start-0x7fff0204>
800004d4:	00642fa3          	sw	x6,31(x8)
800004d8:	01f45e03          	lhu	x28,31(x8)
800004dc:	0fc39863          	bne	x7,x28,800005cc <fail>
800004e0:	07900193          	li	x3,121
800004e4:	00005337          	lui	x6,0x5
800004e8:	94830313          	add	x6,x6,-1720 # 4948 <_start-0x7fffb6b8>
800004ec:	04800393          	li	x7,72
800004f0:	02641fa3          	sh	x6,63(x8)
800004f4:	03f40e03          	lb	x28,63(x8)
800004f8:	0dc39a63          	bne	x7,x28,800005cc <fail>
800004fc:	07a00193          	li	x3,122
80000500:	00005337          	lui	x6,0x5
80000504:	b4a30313          	add	x6,x6,-1206 # 4b4a <_start-0x7fffb4b6>
80000508:	04b00393          	li	x7,75
8000050c:	02641fa3          	sh	x6,63(x8)
80000510:	04040e03          	lb	x28,64(x8)
80000514:	0bc39c63          	bne	x7,x28,800005cc <fail>
80000518:	07b00193          	li	x3,123
8000051c:	00005337          	lui	x6,0x5
80000520:	d4c30313          	add	x6,x6,-692 # 4d4c <_start-0x7fffb2b4>
80000524:	04c00393          	li	x7,76
80000528:	02641fa3          	sh	x6,63(x8)
8000052c:	03f44e03          	lbu	x28,63(x8)
80000530:	09c39e63          	bne	x7,x28,800005cc <fail>
80000534:	07c00193          	li	x3,124
80000538:	00005337          	lui	x6,0x5
8000053c:	f4e30313          	add	x6,x6,-178 # 4f4e <_start-0x7fffb0b2>
80000540:	04f00393          	li	x7,79
80000544:	02641fa3          	sh	x6,63(x8)
80000548:	04044e03          	lbu	x28,64(x8)
8000054c:	09c39063          	bne	x7,x28,800005cc <fail>
80000550:	07d00193          	li	x3,125
80000554:	53525337          	lui	x6,0x53525
80000558:	15030313          	add	x6,x6,336 # 53525150 <_start-0x2cadaeb0>
8000055c:	05000393          	li	x7,80
80000560:	02642ea3          	sw	x6,61(x8)
80000564:	03d40e03          	lb	x28,61(x8)
80000568:	07c39263          	bne	x7,x28,800005cc <fail>
8000056c:	07e00193          	li	x3,126
80000570:	57565337          	lui	x6,0x57565
80000574:	55430313          	add	x6,x6,1364 # 57565554 <_start-0x28a9aaac>
80000578:	05600393          	li	x7,86
8000057c:	02642f23          	sw	x6,62(x8)
80000580:	04044e03          	lbu	x28,64(x8)
80000584:	05c39463          	bne	x7,x28,800005cc <fail>
80000588:	07f00193          	li	x3,127
8000058c:	5b5a6337          	lui	x6,0x5b5a6
80000590:	95830313          	add	x6,x6,-1704 # 5b5a5958 <_start-0x24a5a6a8>
80000594:	000063b7          	lui	x7,0x6
80000598:	b5a38393          	add	x7,x7,-1190 # 5b5a <_start-0x7fffa4a6>
8000059c:	02642ea3          	sw	x6,61(x8)
800005a0:	03f41e03          	lh	x28,63(x8)
800005a4:	03c39463          	bne	x7,x28,800005cc <fail>
800005a8:	08000193          	li	x3,128
800005ac:	5f5e6337          	lui	x6,0x5f5e6
800005b0:	d5c30313          	add	x6,x6,-676 # 5f5e5d5c <_start-0x20a1a2a4>
800005b4:	000063b7          	lui	x7,0x6
800005b8:	d5c38393          	add	x7,x7,-676 # 5d5c <_start-0x7fffa2a4>
800005bc:	02642fa3          	sw	x6,63(x8)
800005c0:	03f45e03          	lhu	x28,63(x8)
800005c4:	01c39463          	bne	x7,x28,800005cc <fail>
800005c8:	00301e63          	bne	x0,x3,800005e4 <pass>

800005cc <fail>:
800005cc:	00018063          	beqz	x3,800005cc <fail>
800005d0:	00119193          	sll	x3,x3,0x1
800005d4:	0011e193          	or	x3,x3,1
800005d8:	05d00893          	li	x17,93
800005dc:	00018513          	mv	x10,x3
800005e0:	00000073          	ecall

800005e4 <pass>:
800005e4:	00100193          	li	x3,1
800005e8:	05d00893          	li	x17,93
800005ec:	00000513          	li	x10,0
800005f0:	00000073          	ecall
800005f4:	c0001073          	unimp
800005f8:	0000                	.insn	2, 0x
800005fa:	0000                	.insn	2, 0x
800005fc:	0000                	.insn	2, 0x
800005fe:	0000                	.insn	2, 0x
80000600:	0000                	.insn	2, 0x
80000602:	0000                	.insn	2, 0x

Disassembly of section .data:

80002000 <begin_signature>:
80002000:	0100                	.insn	2, 0x0100
80002002:	0302                	.insn	2, 0x0302
80002004:	0504                	.insn	2, 0x0504
80002006:	0706                	.insn	2, 0x0706
80002008:	0908                	.insn	2, 0x0908
8000200a:	0b0a                	.insn	2, 0x0b0a
8000200c:	0d0c                	.insn	2, 0x0d0c
8000200e:	0f0e                	.insn	2, 0x0f0e
80002010:	1110                	.insn	2, 0x1110
80002012:	1312                	.insn	2, 0x1312
80002014:	1514                	.insn	2, 0x1514
80002016:	1716                	.insn	2, 0x1716
80002018:	1918                	.insn	2, 0x1918
8000201a:	1b1a                	.insn	2, 0x1b1a
8000201c:	1d1c                	.insn	2, 0x1d1c
8000201e:	1f1e                	.insn	2, 0x1f1e
80002020:	2120                	.insn	2, 0x2120
80002022:	2322                	.insn	2, 0x2322
80002024:	2524                	.insn	2, 0x2524
80002026:	2726                	.insn	2, 0x2726
80002028:	2928                	.insn	2, 0x2928
8000202a:	2b2a                	.insn	2, 0x2b2a
8000202c:	2d2c                	.insn	2, 0x2d2c
8000202e:	2f2e                	.insn	2, 0x2f2e
80002030:	3130                	.insn	2, 0x3130
80002032:	3332                	.insn	2, 0x3332
80002034:	3534                	.insn	2, 0x3534
80002036:	3736                	.insn	2, 0x3736
80002038:	3938                	.insn	2, 0x3938
8000203a:	3b3a                	.insn	2, 0x3b3a
8000203c:	3d3c                	.insn	2, 0x3d3c
8000203e:	3f3e                	.insn	2, 0x3f3e
80002040:	4140                	.insn	2, 0x4140
80002042:	4342                	.insn	2, 0x4342
80002044:	4544                	.insn	2, 0x4544
80002046:	4746                	.insn	2, 0x4746
80002048:	4948                	.insn	2, 0x4948
8000204a:	4b4a                	.insn	2, 0x4b4a
8000204c:	4d4c                	.insn	2, 0x4d4c
8000204e:	4f4e                	.insn	2, 0x4f4e
80002050:	5150                	.insn	2, 0x5150
80002052:	5352                	.insn	2, 0x5352
80002054:	5554                	.insn	2, 0x5554
80002056:	5756                	.insn	2, 0x5756
80002058:	5958                	.insn	2, 0x5958
8000205a:	5b5a                	.insn	2, 0x5b5a
8000205c:	5d5c                	.insn	2, 0x5d5c
8000205e:	5f5e                	.insn	2, 0x5f5e
80002060:	6160                	.insn	2, 0x6160
80002062:	6362                	.insn	2, 0x6362
80002064:	6564                	.insn	2, 0x6564
80002066:	6766                	.insn	2, 0x6766
80002068:	6968                	.insn	2, 0x6968
8000206a:	6b6a                	.insn	2, 0x6b6a
8000206c:	6d6c                	.insn	2, 0x6d6c
8000206e:	6f6e                	.insn	2, 0x6f6e
80002070:	7170                	.insn	2, 0x7170
80002072:	7372                	.insn	2, 0x7372
80002074:	7574                	.insn	2, 0x7574
80002076:	7776                	.insn	2, 0x7776
80002078:	7978                	.insn	2, 0x7978
8000207a:	7b7a                	.insn	2, 0x7b7a
8000207c:	7d7c                	.insn	2, 0x7d7c
8000207e:	7f7e                	.insn	2, 0x7f7e
80002080:	5050                	.insn	2, 0x5050
80002082:	5050                	.insn	2, 0x5050
80002084:	5050                	.insn	2, 0x5050
80002086:	5050                	.insn	2, 0x5050
80002088:	5050                	.insn	2, 0x5050
8000208a:	5050                	.insn	2, 0x5050
8000208c:	5050                	.insn	2, 0x5050
8000208e:	5050                	.insn	2, 0x5050
80002090:	5050                	.insn	2, 0x5050
80002092:	5050                	.insn	2, 0x5050
80002094:	5050                	.insn	2, 0x5050
80002096:	5050                	.insn	2, 0x5050
80002098:	5050                	.insn	2, 0x5050
8000209a:	5050                	.insn	2, 0x5050
8000209c:	5050                	.insn	2, 0x5050
8000209e:	5050                	.insn	2, 0x5050
800020a0:	5050                	.insn	2, 0x5050
800020a2:	5050                	.insn	2, 0x5050
800020a4:	5050                	.insn	2, 0x5050
800020a6:	5050                	.insn	2, 0x5050
800020a8:	5050                	.insn	2, 0x5050
800020aa:	5050                	.insn	2, 0x5050
800020ac:	5050                	.insn	2, 0x5050
800020ae:	5050                	.insn	2, 0x5050
800020b0:	5050                	.insn	2, 0x5050
800020b2:	5050                	.insn	2, 0x5050
800020b4:	5050                	.insn	2, 0x5050
800020b6:	5050                	.insn	2, 0x5050
800020b8:	5050                	.insn	2, 0x5050
800020ba:	5050                	.insn	2, 0x5050
800020bc:	5050                	.insn	2, 0x5050
800020be:	5050                	.insn	2, 0x5050
800020c0:	5050                	.insn	2, 0x5050
800020c2:	5050                	.insn	2, 0x5050
800020c4:	5050                	.insn	2, 0x5050
800020c6:	5050                	.insn	2, 0x5050
800020c8:	5050                	.insn	2, 0x5050
800020ca:	5050                	.insn	2, 0x5050
800020cc:	5050                	.insn	2, 0x5050
800020ce:	5050                	.insn	2, 0x5050
800020d0:	5050                	.insn	2, 0x5050
800020d2:	5050                	.insn	2, 0x5050
800020d4:	5050                	.insn	2, 0x5050
800020d6:	5050                	.insn	2, 0x5050
800020d8:	5050                	.insn	2, 0x5050
800020da:	5050                	.insn	2, 0x5050
800020dc:	5050                	.insn	2, 0x5050
800020de:	5050                	.insn	2, 0x5050
800020e0:	5050                	.insn	2, 0x5050
800020e2:	5050                	.insn	2, 0x5050
800020e4:	5050                	.insn	2, 0x5050
800020e6:	5050                	.insn	2, 0x5050
800020e8:	5050                	.insn	2, 0x5050
800020ea:	5050                	.insn	2, 0x5050
800020ec:	5050                	.insn	2, 0x5050
800020ee:	5050                	.insn	2, 0x5050
800020f0:	5050                	.insn	2, 0x5050
800020f2:	5050                	.insn	2, 0x5050
800020f4:	5050                	.insn	2, 0x5050
800020f6:	5050                	.insn	2, 0x5050
800020f8:	5050                	.insn	2, 0x5050
800020fa:	5050                	.insn	2, 0x5050
800020fc:	5050                	.insn	2, 0x5050
800020fe:	5050                	.insn	2, 0x5050
80002100:	5050                	.insn	2, 0x5050
80002102:	5050                	.insn	2, 0x5050
80002104:	5050                	.insn	2, 0x5050
80002106:	5050                	.insn	2, 0x5050
80002108:	5050                	.insn	2, 0x5050
8000210a:	5050                	.insn	2, 0x5050
8000210c:	5050                	.insn	2, 0x5050
8000210e:	5050                	.insn	2, 0x5050
80002110:	5050                	.insn	2, 0x5050
80002112:	5050                	.insn	2, 0x5050
80002114:	5050                	.insn	2, 0x5050
80002116:	5050                	.insn	2, 0x5050
80002118:	5050                	.insn	2, 0x5050
8000211a:	5050                	.insn	2, 0x5050
8000211c:	5050                	.insn	2, 0x5050
8000211e:	5050                	.insn	2, 0x5050
80002120:	5050                	.insn	2, 0x5050
80002122:	5050                	.insn	2, 0x5050
80002124:	5050                	.insn	2, 0x5050
80002126:	5050                	.insn	2, 0x5050
80002128:	5050                	.insn	2, 0x5050
8000212a:	5050                	.insn	2, 0x5050
8000212c:	5050                	.insn	2, 0x5050
8000212e:	5050                	.insn	2, 0x5050
80002130:	5050                	.insn	2, 0x5050
80002132:	5050                	.insn	2, 0x5050
80002134:	5050                	.insn	2, 0x5050
80002136:	5050                	.insn	2, 0x5050
80002138:	5050                	.insn	2, 0x5050
8000213a:	5050                	.insn	2, 0x5050
8000213c:	5050                	.insn	2, 0x5050
8000213e:	5050                	.insn	2, 0x5050
80002140:	5050                	.insn	2, 0x5050
80002142:	5050                	.insn	2, 0x5050
80002144:	5050                	.insn	2, 0x5050
80002146:	5050                	.insn	2, 0x5050
80002148:	5050                	.insn	2, 0x5050
8000214a:	5050                	.insn	2, 0x5050
8000214c:	5050                	.insn	2, 0x5050
8000214e:	5050                	.insn	2, 0x5050
80002150:	5050                	.insn	2, 0x5050
80002152:	5050                	.insn	2, 0x5050
80002154:	5050                	.insn	2, 0x5050
80002156:	5050                	.insn	2, 0x5050
80002158:	5050                	.insn	2, 0x5050
8000215a:	5050                	.insn	2, 0x5050
8000215c:	5050                	.insn	2, 0x5050
8000215e:	5050                	.insn	2, 0x5050
80002160:	5050                	.insn	2, 0x5050
80002162:	5050                	.insn	2, 0x5050
80002164:	5050                	.insn	2, 0x5050
80002166:	5050                	.insn	2, 0x5050
80002168:	5050                	.insn	2, 0x5050
8000216a:	5050                	.insn	2, 0x5050
8000216c:	5050                	.insn	2, 0x5050
8000216e:	5050                	.insn	2, 0x5050
80002170:	5050                	.insn	2, 0x5050
80002172:	5050                	.insn	2, 0x5050
80002174:	5050                	.insn	2, 0x5050
80002176:	5050                	.insn	2, 0x5050
80002178:	5050                	.insn	2, 0x5050
8000217a:	5050                	.insn	2, 0x5050
8000217c:	5050                	.insn	2, 0x5050
8000217e:	0050                	.insn	2, 0x0050
