
rv32ui-p-srl:     file format elf32-littleriscv


Disassembly of section .text.init:

80000000 <_start>:
80000000:	00000093          	li	x1,0
80000004:	00000113          	li	x2,0
80000008:	00000193          	li	x3,0
8000000c:	00000213          	li	x4,0
80000010:	00000293          	li	x5,0
80000014:	00000313          	li	x6,0
80000018:	00000393          	li	x7,0
8000001c:	00000413          	li	x8,0
80000020:	00000493          	li	x9,0
80000024:	00000513          	li	x10,0
80000028:	00000593          	li	x11,0
8000002c:	00000613          	li	x12,0
80000030:	00000693          	li	x13,0
80000034:	00000713          	li	x14,0
80000038:	00000793          	li	x15,0
8000003c:	00000813          	li	x16,0
80000040:	00000893          	li	x17,0
80000044:	00000913          	li	x18,0
80000048:	00000993          	li	x19,0
8000004c:	00000a13          	li	x20,0
80000050:	00000a93          	li	x21,0
80000054:	00000b13          	li	x22,0
80000058:	00000b93          	li	x23,0
8000005c:	00000c13          	li	x24,0
80000060:	00000c93          	li	x25,0
80000064:	00000d13          	li	x26,0
80000068:	00000d93          	li	x27,0
8000006c:	00000e13          	li	x28,0
80000070:	00000e93          	li	x29,0
80000074:	00000f13          	li	x30,0
80000078:	00000f93          	li	x31,0
8000007c:	00000193          	li	x3,0

80000080 <test_2>:
80000080:	00200193          	li	x3,2
80000084:	800000b7          	lui	x1,0x80000
80000088:	00000113          	li	x2,0
8000008c:	0020d733          	srl	x14,x1,x2
80000090:	800003b7          	lui	x7,0x80000
80000094:	56771863          	bne	x14,x7,80000604 <fail>

80000098 <test_3>:
80000098:	00300193          	li	x3,3
8000009c:	800000b7          	lui	x1,0x80000
800000a0:	00100113          	li	x2,1
800000a4:	0020d733          	srl	x14,x1,x2
800000a8:	400003b7          	lui	x7,0x40000
800000ac:	54771c63          	bne	x14,x7,80000604 <fail>

800000b0 <test_4>:
800000b0:	00400193          	li	x3,4
800000b4:	800000b7          	lui	x1,0x80000
800000b8:	00700113          	li	x2,7
800000bc:	0020d733          	srl	x14,x1,x2
800000c0:	010003b7          	lui	x7,0x1000
800000c4:	54771063          	bne	x14,x7,80000604 <fail>

800000c8 <test_5>:
800000c8:	00500193          	li	x3,5
800000cc:	800000b7          	lui	x1,0x80000
800000d0:	00e00113          	li	x2,14
800000d4:	0020d733          	srl	x14,x1,x2
800000d8:	000203b7          	lui	x7,0x20
800000dc:	52771463          	bne	x14,x7,80000604 <fail>

800000e0 <test_6>:
800000e0:	00600193          	li	x3,6
800000e4:	800000b7          	lui	x1,0x80000
800000e8:	00108093          	add	x1,x1,1 # 80000001 <_start+0x1>
800000ec:	01f00113          	li	x2,31
800000f0:	0020d733          	srl	x14,x1,x2
800000f4:	00100393          	li	x7,1
800000f8:	50771663          	bne	x14,x7,80000604 <fail>

800000fc <test_7>:
800000fc:	00700193          	li	x3,7
80000100:	fff00093          	li	x1,-1
80000104:	00000113          	li	x2,0
80000108:	0020d733          	srl	x14,x1,x2
8000010c:	fff00393          	li	x7,-1
80000110:	4e771a63          	bne	x14,x7,80000604 <fail>

80000114 <test_8>:
80000114:	00800193          	li	x3,8
80000118:	fff00093          	li	x1,-1
8000011c:	00100113          	li	x2,1
80000120:	0020d733          	srl	x14,x1,x2
80000124:	800003b7          	lui	x7,0x80000
80000128:	fff38393          	add	x7,x7,-1 # 7fffffff <_start-0x1>
8000012c:	4c771c63          	bne	x14,x7,80000604 <fail>

80000130 <test_9>:
80000130:	00900193          	li	x3,9
80000134:	fff00093          	li	x1,-1
80000138:	00700113          	li	x2,7
8000013c:	0020d733          	srl	x14,x1,x2
80000140:	020003b7          	lui	x7,0x2000
80000144:	fff38393          	add	x7,x7,-1 # 1ffffff <_start-0x7e000001>
80000148:	4a771e63          	bne	x14,x7,80000604 <fail>

8000014c <test_10>:
8000014c:	00a00193          	li	x3,10
80000150:	fff00093          	li	x1,-1
80000154:	00e00113          	li	x2,14
80000158:	0020d733          	srl	x14,x1,x2
8000015c:	000403b7          	lui	x7,0x40
80000160:	fff38393          	add	x7,x7,-1 # 3ffff <_start-0x7ffc0001>
80000164:	4a771063          	bne	x14,x7,80000604 <fail>

80000168 <test_11>:
80000168:	00b00193          	li	x3,11
8000016c:	fff00093          	li	x1,-1
80000170:	01f00113          	li	x2,31
80000174:	0020d733          	srl	x14,x1,x2
80000178:	00100393          	li	x7,1
8000017c:	48771463          	bne	x14,x7,80000604 <fail>

80000180 <test_12>:
80000180:	00c00193          	li	x3,12
80000184:	212120b7          	lui	x1,0x21212
80000188:	12108093          	add	x1,x1,289 # 21212121 <_start-0x5edededf>
8000018c:	00000113          	li	x2,0
80000190:	0020d733          	srl	x14,x1,x2
80000194:	212123b7          	lui	x7,0x21212
80000198:	12138393          	add	x7,x7,289 # 21212121 <_start-0x5edededf>
8000019c:	46771463          	bne	x14,x7,80000604 <fail>

800001a0 <test_13>:
800001a0:	00d00193          	li	x3,13
800001a4:	212120b7          	lui	x1,0x21212
800001a8:	12108093          	add	x1,x1,289 # 21212121 <_start-0x5edededf>
800001ac:	00100113          	li	x2,1
800001b0:	0020d733          	srl	x14,x1,x2
800001b4:	109093b7          	lui	x7,0x10909
800001b8:	09038393          	add	x7,x7,144 # 10909090 <_start-0x6f6f6f70>
800001bc:	44771463          	bne	x14,x7,80000604 <fail>

800001c0 <test_14>:
800001c0:	00e00193          	li	x3,14
800001c4:	212120b7          	lui	x1,0x21212
800001c8:	12108093          	add	x1,x1,289 # 21212121 <_start-0x5edededf>
800001cc:	00700113          	li	x2,7
800001d0:	0020d733          	srl	x14,x1,x2
800001d4:	004243b7          	lui	x7,0x424
800001d8:	24238393          	add	x7,x7,578 # 424242 <_start-0x7fbdbdbe>
800001dc:	42771463          	bne	x14,x7,80000604 <fail>

800001e0 <test_15>:
800001e0:	00f00193          	li	x3,15
800001e4:	212120b7          	lui	x1,0x21212
800001e8:	12108093          	add	x1,x1,289 # 21212121 <_start-0x5edededf>
800001ec:	00e00113          	li	x2,14
800001f0:	0020d733          	srl	x14,x1,x2
800001f4:	000083b7          	lui	x7,0x8
800001f8:	48438393          	add	x7,x7,1156 # 8484 <_start-0x7fff7b7c>
800001fc:	40771463          	bne	x14,x7,80000604 <fail>

80000200 <test_16>:
80000200:	01000193          	li	x3,16
80000204:	212120b7          	lui	x1,0x21212
80000208:	12108093          	add	x1,x1,289 # 21212121 <_start-0x5edededf>
8000020c:	01f00113          	li	x2,31
80000210:	0020d733          	srl	x14,x1,x2
80000214:	00000393          	li	x7,0
80000218:	3e771663          	bne	x14,x7,80000604 <fail>

8000021c <test_17>:
8000021c:	01100193          	li	x3,17
80000220:	212120b7          	lui	x1,0x21212
80000224:	12108093          	add	x1,x1,289 # 21212121 <_start-0x5edededf>
80000228:	fc000113          	li	x2,-64
8000022c:	0020d733          	srl	x14,x1,x2
80000230:	212123b7          	lui	x7,0x21212
80000234:	12138393          	add	x7,x7,289 # 21212121 <_start-0x5edededf>
80000238:	3c771663          	bne	x14,x7,80000604 <fail>

8000023c <test_18>:
8000023c:	01200193          	li	x3,18
80000240:	212120b7          	lui	x1,0x21212
80000244:	12108093          	add	x1,x1,289 # 21212121 <_start-0x5edededf>
80000248:	fc100113          	li	x2,-63
8000024c:	0020d733          	srl	x14,x1,x2
80000250:	109093b7          	lui	x7,0x10909
80000254:	09038393          	add	x7,x7,144 # 10909090 <_start-0x6f6f6f70>
80000258:	3a771663          	bne	x14,x7,80000604 <fail>

8000025c <test_19>:
8000025c:	01300193          	li	x3,19
80000260:	212120b7          	lui	x1,0x21212
80000264:	12108093          	add	x1,x1,289 # 21212121 <_start-0x5edededf>
80000268:	fc700113          	li	x2,-57
8000026c:	0020d733          	srl	x14,x1,x2
80000270:	004243b7          	lui	x7,0x424
80000274:	24238393          	add	x7,x7,578 # 424242 <_start-0x7fbdbdbe>
80000278:	38771663          	bne	x14,x7,80000604 <fail>

8000027c <test_20>:
8000027c:	01400193          	li	x3,20
80000280:	212120b7          	lui	x1,0x21212
80000284:	12108093          	add	x1,x1,289 # 21212121 <_start-0x5edededf>
80000288:	fce00113          	li	x2,-50
8000028c:	0020d733          	srl	x14,x1,x2
80000290:	000083b7          	lui	x7,0x8
80000294:	48438393          	add	x7,x7,1156 # 8484 <_start-0x7fff7b7c>
80000298:	36771663          	bne	x14,x7,80000604 <fail>

8000029c <test_21>:
8000029c:	01500193          	li	x3,21
800002a0:	212120b7          	lui	x1,0x21212
800002a4:	12108093          	add	x1,x1,289 # 21212121 <_start-0x5edededf>
800002a8:	fff00113          	li	x2,-1
800002ac:	0020d733          	srl	x14,x1,x2
800002b0:	00000393          	li	x7,0
800002b4:	34771863          	bne	x14,x7,80000604 <fail>

800002b8 <test_22>:
800002b8:	01600193          	li	x3,22
800002bc:	800000b7          	lui	x1,0x80000
800002c0:	00700113          	li	x2,7
800002c4:	0020d0b3          	srl	x1,x1,x2
800002c8:	010003b7          	lui	x7,0x1000
800002cc:	32709c63          	bne	x1,x7,80000604 <fail>

800002d0 <test_23>:
800002d0:	01700193          	li	x3,23
800002d4:	800000b7          	lui	x1,0x80000
800002d8:	00e00113          	li	x2,14
800002dc:	0020d133          	srl	x2,x1,x2
800002e0:	000203b7          	lui	x7,0x20
800002e4:	32711063          	bne	x2,x7,80000604 <fail>

800002e8 <test_24>:
800002e8:	01800193          	li	x3,24
800002ec:	00700093          	li	x1,7
800002f0:	0010d0b3          	srl	x1,x1,x1
800002f4:	00000393          	li	x7,0
800002f8:	30709663          	bne	x1,x7,80000604 <fail>

800002fc <test_25>:
800002fc:	01900193          	li	x3,25
80000300:	00000213          	li	x4,0
80000304:	800000b7          	lui	x1,0x80000
80000308:	00700113          	li	x2,7
8000030c:	0020d733          	srl	x14,x1,x2
80000310:	00070313          	mv	x6,x14
80000314:	00120213          	add	x4,x4,1 # 1 <_start-0x7fffffff>
80000318:	00200293          	li	x5,2
8000031c:	fe5214e3          	bne	x4,x5,80000304 <test_25+0x8>
80000320:	010003b7          	lui	x7,0x1000
80000324:	2e731063          	bne	x6,x7,80000604 <fail>

80000328 <test_26>:
80000328:	01a00193          	li	x3,26
8000032c:	00000213          	li	x4,0
80000330:	800000b7          	lui	x1,0x80000
80000334:	00e00113          	li	x2,14
80000338:	0020d733          	srl	x14,x1,x2
8000033c:	00000013          	nop
80000340:	00070313          	mv	x6,x14
80000344:	00120213          	add	x4,x4,1 # 1 <_start-0x7fffffff>
80000348:	00200293          	li	x5,2
8000034c:	fe5212e3          	bne	x4,x5,80000330 <test_26+0x8>
80000350:	000203b7          	lui	x7,0x20
80000354:	2a731863          	bne	x6,x7,80000604 <fail>

80000358 <test_27>:
80000358:	01b00193          	li	x3,27
8000035c:	00000213          	li	x4,0
80000360:	800000b7          	lui	x1,0x80000
80000364:	01f00113          	li	x2,31
80000368:	0020d733          	srl	x14,x1,x2
8000036c:	00000013          	nop
80000370:	00000013          	nop
80000374:	00070313          	mv	x6,x14
80000378:	00120213          	add	x4,x4,1 # 1 <_start-0x7fffffff>
8000037c:	00200293          	li	x5,2
80000380:	fe5210e3          	bne	x4,x5,80000360 <test_27+0x8>
80000384:	00100393          	li	x7,1
80000388:	26731e63          	bne	x6,x7,80000604 <fail>

8000038c <test_28>:
8000038c:	01c00193          	li	x3,28
80000390:	00000213          	li	x4,0
80000394:	800000b7          	lui	x1,0x80000
80000398:	00700113          	li	x2,7
8000039c:	0020d733          	srl	x14,x1,x2
800003a0:	00120213          	add	x4,x4,1 # 1 <_start-0x7fffffff>
800003a4:	00200293          	li	x5,2
800003a8:	fe5216e3          	bne	x4,x5,80000394 <test_28+0x8>
800003ac:	010003b7          	lui	x7,0x1000
800003b0:	24771a63          	bne	x14,x7,80000604 <fail>

800003b4 <test_29>:
800003b4:	01d00193          	li	x3,29
800003b8:	00000213          	li	x4,0
800003bc:	800000b7          	lui	x1,0x80000
800003c0:	00e00113          	li	x2,14
800003c4:	00000013          	nop
800003c8:	0020d733          	srl	x14,x1,x2
800003cc:	00120213          	add	x4,x4,1 # 1 <_start-0x7fffffff>
800003d0:	00200293          	li	x5,2
800003d4:	fe5214e3          	bne	x4,x5,800003bc <test_29+0x8>
800003d8:	000203b7          	lui	x7,0x20
800003dc:	22771463          	bne	x14,x7,80000604 <fail>

800003e0 <test_30>:
800003e0:	01e00193          	li	x3,30
800003e4:	00000213          	li	x4,0
800003e8:	800000b7          	lui	x1,0x80000
800003ec:	01f00113          	li	x2,31
800003f0:	00000013          	nop
800003f4:	00000013          	nop
800003f8:	0020d733          	srl	x14,x1,x2
800003fc:	00120213          	add	x4,x4,1 # 1 <_start-0x7fffffff>
80000400:	00200293          	li	x5,2
80000404:	fe5212e3          	bne	x4,x5,800003e8 <test_30+0x8>
80000408:	00100393          	li	x7,1
8000040c:	1e771c63          	bne	x14,x7,80000604 <fail>

80000410 <test_31>:
80000410:	01f00193          	li	x3,31
80000414:	00000213          	li	x4,0
80000418:	800000b7          	lui	x1,0x80000
8000041c:	00000013          	nop
80000420:	00700113          	li	x2,7
80000424:	0020d733          	srl	x14,x1,x2
80000428:	00120213          	add	x4,x4,1 # 1 <_start-0x7fffffff>
8000042c:	00200293          	li	x5,2
80000430:	fe5214e3          	bne	x4,x5,80000418 <test_31+0x8>
80000434:	010003b7          	lui	x7,0x1000
80000438:	1c771663          	bne	x14,x7,80000604 <fail>

8000043c <test_32>:
8000043c:	02000193          	li	x3,32
80000440:	00000213          	li	x4,0
80000444:	800000b7          	lui	x1,0x80000
80000448:	00000013          	nop
8000044c:	00e00113          	li	x2,14
80000450:	00000013          	nop
80000454:	0020d733          	srl	x14,x1,x2
80000458:	00120213          	add	x4,x4,1 # 1 <_start-0x7fffffff>
8000045c:	00200293          	li	x5,2
80000460:	fe5212e3          	bne	x4,x5,80000444 <test_32+0x8>
80000464:	000203b7          	lui	x7,0x20
80000468:	18771e63          	bne	x14,x7,80000604 <fail>

8000046c <test_33>:
8000046c:	02100193          	li	x3,33
80000470:	00000213          	li	x4,0
80000474:	800000b7          	lui	x1,0x80000
80000478:	00000013          	nop
8000047c:	00000013          	nop
80000480:	01f00113          	li	x2,31
80000484:	0020d733          	srl	x14,x1,x2
80000488:	00120213          	add	x4,x4,1 # 1 <_start-0x7fffffff>
8000048c:	00200293          	li	x5,2
80000490:	fe5212e3          	bne	x4,x5,80000474 <test_33+0x8>
80000494:	00100393          	li	x7,1
80000498:	16771663          	bne	x14,x7,80000604 <fail>

8000049c <test_34>:
8000049c:	02200193          	li	x3,34
800004a0:	00000213          	li	x4,0
800004a4:	00700113          	li	x2,7
800004a8:	800000b7          	lui	x1,0x80000
800004ac:	0020d733          	srl	x14,x1,x2
800004b0:	00120213          	add	x4,x4,1 # 1 <_start-0x7fffffff>
800004b4:	00200293          	li	x5,2
800004b8:	fe5216e3          	bne	x4,x5,800004a4 <test_34+0x8>
800004bc:	010003b7          	lui	x7,0x1000
800004c0:	14771263          	bne	x14,x7,80000604 <fail>

800004c4 <test_35>:
800004c4:	02300193          	li	x3,35
800004c8:	00000213          	li	x4,0
800004cc:	00e00113          	li	x2,14
800004d0:	800000b7          	lui	x1,0x80000
800004d4:	00000013          	nop
800004d8:	0020d733          	srl	x14,x1,x2
800004dc:	00120213          	add	x4,x4,1 # 1 <_start-0x7fffffff>
800004e0:	00200293          	li	x5,2
800004e4:	fe5214e3          	bne	x4,x5,800004cc <test_35+0x8>
800004e8:	000203b7          	lui	x7,0x20
800004ec:	10771c63          	bne	x14,x7,80000604 <fail>

800004f0 <test_36>:
800004f0:	02400193          	li	x3,36
800004f4:	00000213          	li	x4,0
800004f8:	01f00113          	li	x2,31
800004fc:	800000b7          	lui	x1,0x80000
80000500:	00000013          	nop
80000504:	00000013          	nop
80000508:	0020d733          	srl	x14,x1,x2
8000050c:	00120213          	add	x4,x4,1 # 1 <_start-0x7fffffff>
80000510:	00200293          	li	x5,2
80000514:	fe5212e3          	bne	x4,x5,800004f8 <test_36+0x8>
80000518:	00100393          	li	x7,1
8000051c:	0e771463          	bne	x14,x7,80000604 <fail>

80000520 <test_37>:
80000520:	02500193          	li	x3,37
80000524:	00000213          	li	x4,0
80000528:	00700113          	li	x2,7
8000052c:	00000013          	nop
80000530:	800000b7          	lui	x1,0x80000
80000534:	0020d733          	srl	x14,x1,x2
80000538:	00120213          	add	x4,x4,1 # 1 <_start-0x7fffffff>
8000053c:	00200293          	li	x5,2
80000540:	fe5214e3          	bne	x4,x5,80000528 <test_37+0x8>
80000544:	010003b7          	lui	x7,0x1000
80000548:	0a771e63          	bne	x14,x7,80000604 <fail>

8000054c <test_38>:
8000054c:	02600193          	li	x3,38
80000550:	00000213          	li	x4,0
80000554:	00e00113          	li	x2,14
80000558:	00000013          	nop
8000055c:	800000b7          	lui	x1,0x80000
80000560:	00000013          	nop
80000564:	0020d733          	srl	x14,x1,x2
80000568:	00120213          	add	x4,x4,1 # 1 <_start-0x7fffffff>
8000056c:	00200293          	li	x5,2
80000570:	fe5212e3          	bne	x4,x5,80000554 <test_38+0x8>
80000574:	000203b7          	lui	x7,0x20
80000578:	08771663          	bne	x14,x7,80000604 <fail>

8000057c <test_39>:
8000057c:	02700193          	li	x3,39
80000580:	00000213          	li	x4,0
80000584:	01f00113          	li	x2,31
80000588:	00000013          	nop
8000058c:	00000013          	nop
80000590:	800000b7          	lui	x1,0x80000
80000594:	0020d733          	srl	x14,x1,x2
80000598:	00120213          	add	x4,x4,1 # 1 <_start-0x7fffffff>
8000059c:	00200293          	li	x5,2
800005a0:	fe5212e3          	bne	x4,x5,80000584 <test_39+0x8>
800005a4:	00100393          	li	x7,1
800005a8:	04771e63          	bne	x14,x7,80000604 <fail>

800005ac <test_40>:
800005ac:	02800193          	li	x3,40
800005b0:	00f00093          	li	x1,15
800005b4:	00105133          	srl	x2,x0,x1
800005b8:	00000393          	li	x7,0
800005bc:	04711463          	bne	x2,x7,80000604 <fail>

800005c0 <test_41>:
800005c0:	02900193          	li	x3,41
800005c4:	02000093          	li	x1,32
800005c8:	0000d133          	srl	x2,x1,x0
800005cc:	02000393          	li	x7,32
800005d0:	02711a63          	bne	x2,x7,80000604 <fail>

800005d4 <test_42>:
800005d4:	02a00193          	li	x3,42
800005d8:	000050b3          	srl	x1,x0,x0
800005dc:	00000393          	li	x7,0
800005e0:	02709263          	bne	x1,x7,80000604 <fail>

800005e4 <test_43>:
800005e4:	02b00193          	li	x3,43
800005e8:	40000093          	li	x1,1024
800005ec:	00001137          	lui	x2,0x1
800005f0:	80010113          	add	x2,x2,-2048 # 800 <_start-0x7ffff800>
800005f4:	0020d033          	srl	x0,x1,x2
800005f8:	00000393          	li	x7,0
800005fc:	00701463          	bne	x0,x7,80000604 <fail>
80000600:	00301e63          	bne	x0,x3,8000061c <pass>

80000604 <fail>:
80000604:	00018063          	beqz	x3,80000604 <fail>
80000608:	00119193          	sll	x3,x3,0x1
8000060c:	0011e193          	or	x3,x3,1
80000610:	05d00893          	li	x17,93
80000614:	00018513          	mv	x10,x3
80000618:	00000073          	ecall

8000061c <pass>:
8000061c:	00100193          	li	x3,1
80000620:	05d00893          	li	x17,93
80000624:	00000513          	li	x10,0
80000628:	00000073          	ecall
8000062c:	c0001073          	unimp
80000630:	0000                	.insn	2, 0x
80000632:	0000                	.insn	2, 0x
80000634:	0000                	.insn	2, 0x
80000636:	0000                	.insn	2, 0x
80000638:	0000                	.insn	2, 0x
8000063a:	0000                	.insn	2, 0x
8000063c:	0000                	.insn	2, 0x
8000063e:	0000                	.insn	2, 0x
80000640:	0000                	.insn	2, 0x
80000642:	0000                	.insn	2, 0x
