
rv32ui-p-lhu:     file format elf32-littleriscv


Disassembly of section .text.init:

80000000 <_start>:
80000000:	00000093          	addi	x1,x0,0
80000004:	00000113          	addi	x2,x0,0
80000008:	00000193          	addi	x3,x0,0
8000000c:	00000213          	addi	x4,x0,0
80000010:	00000293          	addi	x5,x0,0
80000014:	00000313          	addi	x6,x0,0
80000018:	00000393          	addi	x7,x0,0
8000001c:	00000413          	addi	x8,x0,0
80000020:	00000493          	addi	x9,x0,0
80000024:	00000513          	addi	x10,x0,0
80000028:	00000593          	addi	x11,x0,0
8000002c:	00000613          	addi	x12,x0,0
80000030:	00000693          	addi	x13,x0,0
80000034:	00000713          	addi	x14,x0,0
80000038:	00000793          	addi	x15,x0,0
8000003c:	00000813          	addi	x16,x0,0
80000040:	00000893          	addi	x17,x0,0
80000044:	00000913          	addi	x18,x0,0
80000048:	00000993          	addi	x19,x0,0
8000004c:	00000a13          	addi	x20,x0,0
80000050:	00000a93          	addi	x21,x0,0
80000054:	00000b13          	addi	x22,x0,0
80000058:	00000b93          	addi	x23,x0,0
8000005c:	00000c13          	addi	x24,x0,0
80000060:	00000c93          	addi	x25,x0,0
80000064:	00000d13          	addi	x26,x0,0
80000068:	00000d93          	addi	x27,x0,0
8000006c:	00000e13          	addi	x28,x0,0
80000070:	00000e93          	addi	x29,x0,0
80000074:	00000f13          	addi	x30,x0,0
80000078:	00000f93          	addi	x31,x0,0
8000007c:	00000193          	addi	x3,x0,0

80000080 <test_2>:
80000080:	00200193          	addi	x3,x0,2
80000084:	0ff00793          	addi	x15,x0,255
80000088:	00002097          	auipc	x1,0x2
8000008c:	f7808093          	addi	x1,x1,-136 # 80002000 <begin_signature>
80000090:	0000d703          	lhu	x14,0(x1)
80000094:	0ff00393          	addi	x7,x0,255
80000098:	2a771063          	bne	x14,x7,80000338 <fail>

8000009c <test_3>:
8000009c:	00300193          	addi	x3,x0,3
800000a0:	000107b7          	lui	x15,0x10
800000a4:	f0078793          	addi	x15,x15,-256 # ff00 <_start-0x7fff0100>
800000a8:	00002097          	auipc	x1,0x2
800000ac:	f5808093          	addi	x1,x1,-168 # 80002000 <begin_signature>
800000b0:	0020d703          	lhu	x14,2(x1)
800000b4:	000103b7          	lui	x7,0x10
800000b8:	f0038393          	addi	x7,x7,-256 # ff00 <_start-0x7fff0100>
800000bc:	26771e63          	bne	x14,x7,80000338 <fail>

800000c0 <test_4>:
800000c0:	00400193          	addi	x3,x0,4
800000c4:	000017b7          	lui	x15,0x1
800000c8:	ff078793          	addi	x15,x15,-16 # ff0 <_start-0x7ffff010>
800000cc:	00002097          	auipc	x1,0x2
800000d0:	f3408093          	addi	x1,x1,-204 # 80002000 <begin_signature>
800000d4:	0040d703          	lhu	x14,4(x1)
800000d8:	000013b7          	lui	x7,0x1
800000dc:	ff038393          	addi	x7,x7,-16 # ff0 <_start-0x7ffff010>
800000e0:	24771c63          	bne	x14,x7,80000338 <fail>

800000e4 <test_5>:
800000e4:	00500193          	addi	x3,x0,5
800000e8:	0000f7b7          	lui	x15,0xf
800000ec:	00f78793          	addi	x15,x15,15 # f00f <_start-0x7fff0ff1>
800000f0:	00002097          	auipc	x1,0x2
800000f4:	f1008093          	addi	x1,x1,-240 # 80002000 <begin_signature>
800000f8:	0060d703          	lhu	x14,6(x1)
800000fc:	0000f3b7          	lui	x7,0xf
80000100:	00f38393          	addi	x7,x7,15 # f00f <_start-0x7fff0ff1>
80000104:	22771a63          	bne	x14,x7,80000338 <fail>

80000108 <test_6>:
80000108:	00600193          	addi	x3,x0,6
8000010c:	0ff00793          	addi	x15,x0,255
80000110:	00002097          	auipc	x1,0x2
80000114:	ef608093          	addi	x1,x1,-266 # 80002006 <tdat4>
80000118:	ffa0d703          	lhu	x14,-6(x1)
8000011c:	0ff00393          	addi	x7,x0,255
80000120:	20771c63          	bne	x14,x7,80000338 <fail>

80000124 <test_7>:
80000124:	00700193          	addi	x3,x0,7
80000128:	000107b7          	lui	x15,0x10
8000012c:	f0078793          	addi	x15,x15,-256 # ff00 <_start-0x7fff0100>
80000130:	00002097          	auipc	x1,0x2
80000134:	ed608093          	addi	x1,x1,-298 # 80002006 <tdat4>
80000138:	ffc0d703          	lhu	x14,-4(x1)
8000013c:	000103b7          	lui	x7,0x10
80000140:	f0038393          	addi	x7,x7,-256 # ff00 <_start-0x7fff0100>
80000144:	1e771a63          	bne	x14,x7,80000338 <fail>

80000148 <test_8>:
80000148:	00800193          	addi	x3,x0,8
8000014c:	000017b7          	lui	x15,0x1
80000150:	ff078793          	addi	x15,x15,-16 # ff0 <_start-0x7ffff010>
80000154:	00002097          	auipc	x1,0x2
80000158:	eb208093          	addi	x1,x1,-334 # 80002006 <tdat4>
8000015c:	ffe0d703          	lhu	x14,-2(x1)
80000160:	000013b7          	lui	x7,0x1
80000164:	ff038393          	addi	x7,x7,-16 # ff0 <_start-0x7ffff010>
80000168:	1c771863          	bne	x14,x7,80000338 <fail>

8000016c <test_9>:
8000016c:	00900193          	addi	x3,x0,9
80000170:	0000f7b7          	lui	x15,0xf
80000174:	00f78793          	addi	x15,x15,15 # f00f <_start-0x7fff0ff1>
80000178:	00002097          	auipc	x1,0x2
8000017c:	e8e08093          	addi	x1,x1,-370 # 80002006 <tdat4>
80000180:	0000d703          	lhu	x14,0(x1)
80000184:	0000f3b7          	lui	x7,0xf
80000188:	00f38393          	addi	x7,x7,15 # f00f <_start-0x7fff0ff1>
8000018c:	1a771663          	bne	x14,x7,80000338 <fail>

80000190 <test_10>:
80000190:	00a00193          	addi	x3,x0,10
80000194:	00002097          	auipc	x1,0x2
80000198:	e6c08093          	addi	x1,x1,-404 # 80002000 <begin_signature>
8000019c:	fe008093          	addi	x1,x1,-32
800001a0:	0200d283          	lhu	x5,32(x1)
800001a4:	0ff00393          	addi	x7,x0,255
800001a8:	18729863          	bne	x5,x7,80000338 <fail>

800001ac <test_11>:
800001ac:	00b00193          	addi	x3,x0,11
800001b0:	00002097          	auipc	x1,0x2
800001b4:	e5008093          	addi	x1,x1,-432 # 80002000 <begin_signature>
800001b8:	ffb08093          	addi	x1,x1,-5
800001bc:	0070d283          	lhu	x5,7(x1)
800001c0:	000103b7          	lui	x7,0x10
800001c4:	f0038393          	addi	x7,x7,-256 # ff00 <_start-0x7fff0100>
800001c8:	16729863          	bne	x5,x7,80000338 <fail>

800001cc <test_12>:
800001cc:	00c00193          	addi	x3,x0,12
800001d0:	00000213          	addi	x4,x0,0
800001d4:	00002097          	auipc	x1,0x2
800001d8:	e2e08093          	addi	x1,x1,-466 # 80002002 <tdat2>
800001dc:	0020d703          	lhu	x14,2(x1)
800001e0:	00070313          	addi	x6,x14,0
800001e4:	000013b7          	lui	x7,0x1
800001e8:	ff038393          	addi	x7,x7,-16 # ff0 <_start-0x7ffff010>
800001ec:	14731663          	bne	x6,x7,80000338 <fail>
800001f0:	00120213          	addi	x4,x4,1 # 1 <_start-0x7fffffff>
800001f4:	00200293          	addi	x5,x0,2
800001f8:	fc521ee3          	bne	x4,x5,800001d4 <test_12+0x8>

800001fc <test_13>:
800001fc:	00d00193          	addi	x3,x0,13
80000200:	00000213          	addi	x4,x0,0
80000204:	00002097          	auipc	x1,0x2
80000208:	e0008093          	addi	x1,x1,-512 # 80002004 <tdat3>
8000020c:	0020d703          	lhu	x14,2(x1)
80000210:	00000013          	addi	x0,x0,0
80000214:	00070313          	addi	x6,x14,0
80000218:	0000f3b7          	lui	x7,0xf
8000021c:	00f38393          	addi	x7,x7,15 # f00f <_start-0x7fff0ff1>
80000220:	10731c63          	bne	x6,x7,80000338 <fail>
80000224:	00120213          	addi	x4,x4,1 # 1 <_start-0x7fffffff>
80000228:	00200293          	addi	x5,x0,2
8000022c:	fc521ce3          	bne	x4,x5,80000204 <test_13+0x8>

80000230 <test_14>:
80000230:	00e00193          	addi	x3,x0,14
80000234:	00000213          	addi	x4,x0,0
80000238:	00002097          	auipc	x1,0x2
8000023c:	dc808093          	addi	x1,x1,-568 # 80002000 <begin_signature>
80000240:	0020d703          	lhu	x14,2(x1)
80000244:	00000013          	addi	x0,x0,0
80000248:	00000013          	addi	x0,x0,0
8000024c:	00070313          	addi	x6,x14,0
80000250:	000103b7          	lui	x7,0x10
80000254:	f0038393          	addi	x7,x7,-256 # ff00 <_start-0x7fff0100>
80000258:	0e731063          	bne	x6,x7,80000338 <fail>
8000025c:	00120213          	addi	x4,x4,1 # 1 <_start-0x7fffffff>
80000260:	00200293          	addi	x5,x0,2
80000264:	fc521ae3          	bne	x4,x5,80000238 <test_14+0x8>

80000268 <test_15>:
80000268:	00f00193          	addi	x3,x0,15
8000026c:	00000213          	addi	x4,x0,0
80000270:	00002097          	auipc	x1,0x2
80000274:	d9208093          	addi	x1,x1,-622 # 80002002 <tdat2>
80000278:	0020d703          	lhu	x14,2(x1)
8000027c:	000013b7          	lui	x7,0x1
80000280:	ff038393          	addi	x7,x7,-16 # ff0 <_start-0x7ffff010>
80000284:	0a771a63          	bne	x14,x7,80000338 <fail>
80000288:	00120213          	addi	x4,x4,1 # 1 <_start-0x7fffffff>
8000028c:	00200293          	addi	x5,x0,2
80000290:	fe5210e3          	bne	x4,x5,80000270 <test_15+0x8>

80000294 <test_16>:
80000294:	01000193          	addi	x3,x0,16
80000298:	00000213          	addi	x4,x0,0
8000029c:	00002097          	auipc	x1,0x2
800002a0:	d6808093          	addi	x1,x1,-664 # 80002004 <tdat3>
800002a4:	00000013          	addi	x0,x0,0
800002a8:	0020d703          	lhu	x14,2(x1)
800002ac:	0000f3b7          	lui	x7,0xf
800002b0:	00f38393          	addi	x7,x7,15 # f00f <_start-0x7fff0ff1>
800002b4:	08771263          	bne	x14,x7,80000338 <fail>
800002b8:	00120213          	addi	x4,x4,1 # 1 <_start-0x7fffffff>
800002bc:	00200293          	addi	x5,x0,2
800002c0:	fc521ee3          	bne	x4,x5,8000029c <test_16+0x8>

800002c4 <test_17>:
800002c4:	01100193          	addi	x3,x0,17
800002c8:	00000213          	addi	x4,x0,0
800002cc:	00002097          	auipc	x1,0x2
800002d0:	d3408093          	addi	x1,x1,-716 # 80002000 <begin_signature>
800002d4:	00000013          	addi	x0,x0,0
800002d8:	00000013          	addi	x0,x0,0
800002dc:	0020d703          	lhu	x14,2(x1)
800002e0:	000103b7          	lui	x7,0x10
800002e4:	f0038393          	addi	x7,x7,-256 # ff00 <_start-0x7fff0100>
800002e8:	04771863          	bne	x14,x7,80000338 <fail>
800002ec:	00120213          	addi	x4,x4,1 # 1 <_start-0x7fffffff>
800002f0:	00200293          	addi	x5,x0,2
800002f4:	fc521ce3          	bne	x4,x5,800002cc <test_17+0x8>

800002f8 <test_18>:
800002f8:	01200193          	addi	x3,x0,18
800002fc:	00002297          	auipc	x5,0x2
80000300:	d0428293          	addi	x5,x5,-764 # 80002000 <begin_signature>
80000304:	0002d103          	lhu	x2,0(x5)
80000308:	00200113          	addi	x2,x0,2
8000030c:	00200393          	addi	x7,x0,2
80000310:	02711463          	bne	x2,x7,80000338 <fail>

80000314 <test_19>:
80000314:	01300193          	addi	x3,x0,19
80000318:	00002297          	auipc	x5,0x2
8000031c:	ce828293          	addi	x5,x5,-792 # 80002000 <begin_signature>
80000320:	0002d103          	lhu	x2,0(x5)
80000324:	00000013          	addi	x0,x0,0
80000328:	00200113          	addi	x2,x0,2
8000032c:	00200393          	addi	x7,x0,2
80000330:	00711463          	bne	x2,x7,80000338 <fail>
80000334:	00301e63          	bne	x0,x3,80000350 <pass>

80000338 <fail>:
80000338:	00018063          	beq	x3,x0,80000338 <fail>
8000033c:	00119193          	slli	x3,x3,0x1
80000340:	0011e193          	ori	x3,x3,1
80000344:	05d00893          	addi	x17,x0,93
80000348:	00018513          	addi	x10,x3,0
8000034c:	00000073          	ecall

80000350 <pass>:
80000350:	00100193          	addi	x3,x0,1
80000354:	05d00893          	addi	x17,x0,93
80000358:	00000513          	addi	x10,x0,0
8000035c:	00000073          	ecall
80000360:	c0001073          	unimp
80000364:	0000                	.insn	2, 0x
80000366:	0000                	.insn	2, 0x
80000368:	0000                	.insn	2, 0x
8000036a:	0000                	.insn	2, 0x
8000036c:	0000                	.insn	2, 0x
8000036e:	0000                	.insn	2, 0x
80000370:	0000                	.insn	2, 0x
80000372:	0000                	.insn	2, 0x
80000374:	0000                	.insn	2, 0x
80000376:	0000                	.insn	2, 0x
80000378:	0000                	.insn	2, 0x
8000037a:	0000                	.insn	2, 0x
8000037c:	0000                	.insn	2, 0x
8000037e:	0000                	.insn	2, 0x
80000380:	0000                	.insn	2, 0x
80000382:	0000                	.insn	2, 0x

Disassembly of section .data:

80002000 <begin_signature>:
80002000:	00ff    	.insn	10, 0xf00f0ff0ff0000ff
80002008:	 

80002002 <tdat2>:
80002002:	ff00                	.insn	2, 0xff00

80002004 <tdat3>:
80002004:	0ff0                	.insn	2, 0x0ff0

80002006 <tdat4>:
80002006:	0000f00f          	.insn	4, 0xf00f
8000200a:	0000                	.insn	2, 0x
8000200c:	0000                	.insn	2, 0x
8000200e:	0000                	.insn	2, 0x
