
rv32ui-p-lw:     file format elf32-littleriscv


Disassembly of section .text.init:

80000000 <_start>:
80000000:	00000093          	li	x1,0
80000004:	00000113          	li	x2,0
80000008:	00000193          	li	x3,0
8000000c:	00000213          	li	x4,0
80000010:	00000293          	li	x5,0
80000014:	00000313          	li	x6,0
80000018:	00000393          	li	x7,0
8000001c:	00000413          	li	x8,0
80000020:	00000493          	li	x9,0
80000024:	00000513          	li	x10,0
80000028:	00000593          	li	x11,0
8000002c:	00000613          	li	x12,0
80000030:	00000693          	li	x13,0
80000034:	00000713          	li	x14,0
80000038:	00000793          	li	x15,0
8000003c:	00000813          	li	x16,0
80000040:	00000893          	li	x17,0
80000044:	00000913          	li	x18,0
80000048:	00000993          	li	x19,0
8000004c:	00000a13          	li	x20,0
80000050:	00000a93          	li	x21,0
80000054:	00000b13          	li	x22,0
80000058:	00000b93          	li	x23,0
8000005c:	00000c13          	li	x24,0
80000060:	00000c93          	li	x25,0
80000064:	00000d13          	li	x26,0
80000068:	00000d93          	li	x27,0
8000006c:	00000e13          	li	x28,0
80000070:	00000e93          	li	x29,0
80000074:	00000f13          	li	x30,0
80000078:	00000f93          	li	x31,0
8000007c:	00000193          	li	x3,0

80000080 <test_2>:
80000080:	00200193          	li	x3,2
80000084:	00ff07b7          	lui	x15,0xff0
80000088:	0ff78793          	add	x15,x15,255 # ff00ff <_start-0x7f00ff01>
8000008c:	00002097          	auipc	x1,0x2
80000090:	f7408093          	add	x1,x1,-140 # 80002000 <begin_signature>
80000094:	0000a703          	lw	x14,0(x1)
80000098:	00ff03b7          	lui	x7,0xff0
8000009c:	0ff38393          	add	x7,x7,255 # ff00ff <_start-0x7f00ff01>
800000a0:	2a771663          	bne	x14,x7,8000034c <fail>

800000a4 <test_3>:
800000a4:	00300193          	li	x3,3
800000a8:	ff0107b7          	lui	x15,0xff010
800000ac:	f0078793          	add	x15,x15,-256 # ff00ff00 <_end+0x7f00def0>
800000b0:	00002097          	auipc	x1,0x2
800000b4:	f5008093          	add	x1,x1,-176 # 80002000 <begin_signature>
800000b8:	0040a703          	lw	x14,4(x1)
800000bc:	ff0103b7          	lui	x7,0xff010
800000c0:	f0038393          	add	x7,x7,-256 # ff00ff00 <_end+0x7f00def0>
800000c4:	28771463          	bne	x14,x7,8000034c <fail>

800000c8 <test_4>:
800000c8:	00400193          	li	x3,4
800000cc:	0ff017b7          	lui	x15,0xff01
800000d0:	ff078793          	add	x15,x15,-16 # ff00ff0 <_start-0x700ff010>
800000d4:	00002097          	auipc	x1,0x2
800000d8:	f2c08093          	add	x1,x1,-212 # 80002000 <begin_signature>
800000dc:	0080a703          	lw	x14,8(x1)
800000e0:	0ff013b7          	lui	x7,0xff01
800000e4:	ff038393          	add	x7,x7,-16 # ff00ff0 <_start-0x700ff010>
800000e8:	26771263          	bne	x14,x7,8000034c <fail>

800000ec <test_5>:
800000ec:	00500193          	li	x3,5
800000f0:	f00ff7b7          	lui	x15,0xf00ff
800000f4:	00f78793          	add	x15,x15,15 # f00ff00f <_end+0x700fcfff>
800000f8:	00002097          	auipc	x1,0x2
800000fc:	f0808093          	add	x1,x1,-248 # 80002000 <begin_signature>
80000100:	00c0a703          	lw	x14,12(x1)
80000104:	f00ff3b7          	lui	x7,0xf00ff
80000108:	00f38393          	add	x7,x7,15 # f00ff00f <_end+0x700fcfff>
8000010c:	24771063          	bne	x14,x7,8000034c <fail>

80000110 <test_6>:
80000110:	00600193          	li	x3,6
80000114:	00ff07b7          	lui	x15,0xff0
80000118:	0ff78793          	add	x15,x15,255 # ff00ff <_start-0x7f00ff01>
8000011c:	00002097          	auipc	x1,0x2
80000120:	ef008093          	add	x1,x1,-272 # 8000200c <tdat4>
80000124:	ff40a703          	lw	x14,-12(x1)
80000128:	00ff03b7          	lui	x7,0xff0
8000012c:	0ff38393          	add	x7,x7,255 # ff00ff <_start-0x7f00ff01>
80000130:	20771e63          	bne	x14,x7,8000034c <fail>

80000134 <test_7>:
80000134:	00700193          	li	x3,7
80000138:	ff0107b7          	lui	x15,0xff010
8000013c:	f0078793          	add	x15,x15,-256 # ff00ff00 <_end+0x7f00def0>
80000140:	00002097          	auipc	x1,0x2
80000144:	ecc08093          	add	x1,x1,-308 # 8000200c <tdat4>
80000148:	ff80a703          	lw	x14,-8(x1)
8000014c:	ff0103b7          	lui	x7,0xff010
80000150:	f0038393          	add	x7,x7,-256 # ff00ff00 <_end+0x7f00def0>
80000154:	1e771c63          	bne	x14,x7,8000034c <fail>

80000158 <test_8>:
80000158:	00800193          	li	x3,8
8000015c:	0ff017b7          	lui	x15,0xff01
80000160:	ff078793          	add	x15,x15,-16 # ff00ff0 <_start-0x700ff010>
80000164:	00002097          	auipc	x1,0x2
80000168:	ea808093          	add	x1,x1,-344 # 8000200c <tdat4>
8000016c:	ffc0a703          	lw	x14,-4(x1)
80000170:	0ff013b7          	lui	x7,0xff01
80000174:	ff038393          	add	x7,x7,-16 # ff00ff0 <_start-0x700ff010>
80000178:	1c771a63          	bne	x14,x7,8000034c <fail>

8000017c <test_9>:
8000017c:	00900193          	li	x3,9
80000180:	f00ff7b7          	lui	x15,0xf00ff
80000184:	00f78793          	add	x15,x15,15 # f00ff00f <_end+0x700fcfff>
80000188:	00002097          	auipc	x1,0x2
8000018c:	e8408093          	add	x1,x1,-380 # 8000200c <tdat4>
80000190:	0000a703          	lw	x14,0(x1)
80000194:	f00ff3b7          	lui	x7,0xf00ff
80000198:	00f38393          	add	x7,x7,15 # f00ff00f <_end+0x700fcfff>
8000019c:	1a771863          	bne	x14,x7,8000034c <fail>

800001a0 <test_10>:
800001a0:	00a00193          	li	x3,10
800001a4:	00002097          	auipc	x1,0x2
800001a8:	e5c08093          	add	x1,x1,-420 # 80002000 <begin_signature>
800001ac:	fe008093          	add	x1,x1,-32
800001b0:	0200a283          	lw	x5,32(x1)
800001b4:	00ff03b7          	lui	x7,0xff0
800001b8:	0ff38393          	add	x7,x7,255 # ff00ff <_start-0x7f00ff01>
800001bc:	18729863          	bne	x5,x7,8000034c <fail>

800001c0 <test_11>:
800001c0:	00b00193          	li	x3,11
800001c4:	00002097          	auipc	x1,0x2
800001c8:	e3c08093          	add	x1,x1,-452 # 80002000 <begin_signature>
800001cc:	ffd08093          	add	x1,x1,-3
800001d0:	0070a283          	lw	x5,7(x1)
800001d4:	ff0103b7          	lui	x7,0xff010
800001d8:	f0038393          	add	x7,x7,-256 # ff00ff00 <_end+0x7f00def0>
800001dc:	16729863          	bne	x5,x7,8000034c <fail>

800001e0 <test_12>:
800001e0:	00c00193          	li	x3,12
800001e4:	00000213          	li	x4,0
800001e8:	00002097          	auipc	x1,0x2
800001ec:	e1c08093          	add	x1,x1,-484 # 80002004 <tdat2>
800001f0:	0040a703          	lw	x14,4(x1)
800001f4:	00070313          	mv	x6,x14
800001f8:	0ff013b7          	lui	x7,0xff01
800001fc:	ff038393          	add	x7,x7,-16 # ff00ff0 <_start-0x700ff010>
80000200:	14731663          	bne	x6,x7,8000034c <fail>
80000204:	00120213          	add	x4,x4,1 # 1 <_start-0x7fffffff>
80000208:	00200293          	li	x5,2
8000020c:	fc521ee3          	bne	x4,x5,800001e8 <test_12+0x8>

80000210 <test_13>:
80000210:	00d00193          	li	x3,13
80000214:	00000213          	li	x4,0
80000218:	00002097          	auipc	x1,0x2
8000021c:	df008093          	add	x1,x1,-528 # 80002008 <tdat3>
80000220:	0040a703          	lw	x14,4(x1)
80000224:	00000013          	nop
80000228:	00070313          	mv	x6,x14
8000022c:	f00ff3b7          	lui	x7,0xf00ff
80000230:	00f38393          	add	x7,x7,15 # f00ff00f <_end+0x700fcfff>
80000234:	10731c63          	bne	x6,x7,8000034c <fail>
80000238:	00120213          	add	x4,x4,1 # 1 <_start-0x7fffffff>
8000023c:	00200293          	li	x5,2
80000240:	fc521ce3          	bne	x4,x5,80000218 <test_13+0x8>

80000244 <test_14>:
80000244:	00e00193          	li	x3,14
80000248:	00000213          	li	x4,0
8000024c:	00002097          	auipc	x1,0x2
80000250:	db408093          	add	x1,x1,-588 # 80002000 <begin_signature>
80000254:	0040a703          	lw	x14,4(x1)
80000258:	00000013          	nop
8000025c:	00000013          	nop
80000260:	00070313          	mv	x6,x14
80000264:	ff0103b7          	lui	x7,0xff010
80000268:	f0038393          	add	x7,x7,-256 # ff00ff00 <_end+0x7f00def0>
8000026c:	0e731063          	bne	x6,x7,8000034c <fail>
80000270:	00120213          	add	x4,x4,1 # 1 <_start-0x7fffffff>
80000274:	00200293          	li	x5,2
80000278:	fc521ae3          	bne	x4,x5,8000024c <test_14+0x8>

8000027c <test_15>:
8000027c:	00f00193          	li	x3,15
80000280:	00000213          	li	x4,0
80000284:	00002097          	auipc	x1,0x2
80000288:	d8008093          	add	x1,x1,-640 # 80002004 <tdat2>
8000028c:	0040a703          	lw	x14,4(x1)
80000290:	0ff013b7          	lui	x7,0xff01
80000294:	ff038393          	add	x7,x7,-16 # ff00ff0 <_start-0x700ff010>
80000298:	0a771a63          	bne	x14,x7,8000034c <fail>
8000029c:	00120213          	add	x4,x4,1 # 1 <_start-0x7fffffff>
800002a0:	00200293          	li	x5,2
800002a4:	fe5210e3          	bne	x4,x5,80000284 <test_15+0x8>

800002a8 <test_16>:
800002a8:	01000193          	li	x3,16
800002ac:	00000213          	li	x4,0
800002b0:	00002097          	auipc	x1,0x2
800002b4:	d5808093          	add	x1,x1,-680 # 80002008 <tdat3>
800002b8:	00000013          	nop
800002bc:	0040a703          	lw	x14,4(x1)
800002c0:	f00ff3b7          	lui	x7,0xf00ff
800002c4:	00f38393          	add	x7,x7,15 # f00ff00f <_end+0x700fcfff>
800002c8:	08771263          	bne	x14,x7,8000034c <fail>
800002cc:	00120213          	add	x4,x4,1 # 1 <_start-0x7fffffff>
800002d0:	00200293          	li	x5,2
800002d4:	fc521ee3          	bne	x4,x5,800002b0 <test_16+0x8>

800002d8 <test_17>:
800002d8:	01100193          	li	x3,17
800002dc:	00000213          	li	x4,0
800002e0:	00002097          	auipc	x1,0x2
800002e4:	d2008093          	add	x1,x1,-736 # 80002000 <begin_signature>
800002e8:	00000013          	nop
800002ec:	00000013          	nop
800002f0:	0040a703          	lw	x14,4(x1)
800002f4:	ff0103b7          	lui	x7,0xff010
800002f8:	f0038393          	add	x7,x7,-256 # ff00ff00 <_end+0x7f00def0>
800002fc:	04771863          	bne	x14,x7,8000034c <fail>
80000300:	00120213          	add	x4,x4,1 # 1 <_start-0x7fffffff>
80000304:	00200293          	li	x5,2
80000308:	fc521ce3          	bne	x4,x5,800002e0 <test_17+0x8>

8000030c <test_18>:
8000030c:	01200193          	li	x3,18
80000310:	00002297          	auipc	x5,0x2
80000314:	cf028293          	add	x5,x5,-784 # 80002000 <begin_signature>
80000318:	0002a103          	lw	x2,0(x5)
8000031c:	00200113          	li	x2,2
80000320:	00200393          	li	x7,2
80000324:	02711463          	bne	x2,x7,8000034c <fail>

80000328 <test_19>:
80000328:	01300193          	li	x3,19
8000032c:	00002297          	auipc	x5,0x2
80000330:	cd428293          	add	x5,x5,-812 # 80002000 <begin_signature>
80000334:	0002a103          	lw	x2,0(x5)
80000338:	00000013          	nop
8000033c:	00200113          	li	x2,2
80000340:	00200393          	li	x7,2
80000344:	00711463          	bne	x2,x7,8000034c <fail>
80000348:	00301e63          	bne	x0,x3,80000364 <pass>

8000034c <fail>:
8000034c:	00018063          	beqz	x3,8000034c <fail>
80000350:	00119193          	sll	x3,x3,0x1
80000354:	0011e193          	or	x3,x3,1
80000358:	05d00893          	li	x17,93
8000035c:	00018513          	mv	x10,x3
80000360:	00000073          	ecall

80000364 <pass>:
80000364:	00100193          	li	x3,1
80000368:	05d00893          	li	x17,93
8000036c:	00000513          	li	x10,0
80000370:	00000073          	ecall
80000374:	c0001073          	unimp
80000378:	0000                	.insn	2, 0x
8000037a:	0000                	.insn	2, 0x
8000037c:	0000                	.insn	2, 0x
8000037e:	0000                	.insn	2, 0x
80000380:	0000                	.insn	2, 0x
80000382:	0000                	.insn	2, 0x

Disassembly of section .data:

80002000 <begin_signature>:
80002000:	00ff 00ff   	.insn	10, 0x0ff0ff00ff0000ff00ff
80002008:	 

80002004 <tdat2>:
80002004:	ff00                	.insn	2, 0xff00
80002006:	ff00                	.insn	2, 0xff00

80002008 <tdat3>:
80002008:	0ff0                	.insn	2, 0x0ff0
8000200a:	0ff0                	.insn	2, 0x0ff0

8000200c <tdat4>:
8000200c:	f00ff00f          	.insn	4, 0xf00ff00f
