
rv32ui-p-slt:     file format elf32-littleriscv


Disassembly of section .text.init:

80000000 <_start>:
80000000:	00000093          	addi	x1,x0,0
80000004:	00000113          	addi	x2,x0,0
80000008:	00000193          	addi	x3,x0,0
8000000c:	00000213          	addi	x4,x0,0
80000010:	00000293          	addi	x5,x0,0
80000014:	00000313          	addi	x6,x0,0
80000018:	00000393          	addi	x7,x0,0
8000001c:	00000413          	addi	x8,x0,0
80000020:	00000493          	addi	x9,x0,0
80000024:	00000513          	addi	x10,x0,0
80000028:	00000593          	addi	x11,x0,0
8000002c:	00000613          	addi	x12,x0,0
80000030:	00000693          	addi	x13,x0,0
80000034:	00000713          	addi	x14,x0,0
80000038:	00000793          	addi	x15,x0,0
8000003c:	00000813          	addi	x16,x0,0
80000040:	00000893          	addi	x17,x0,0
80000044:	00000913          	addi	x18,x0,0
80000048:	00000993          	addi	x19,x0,0
8000004c:	00000a13          	addi	x20,x0,0
80000050:	00000a93          	addi	x21,x0,0
80000054:	00000b13          	addi	x22,x0,0
80000058:	00000b93          	addi	x23,x0,0
8000005c:	00000c13          	addi	x24,x0,0
80000060:	00000c93          	addi	x25,x0,0
80000064:	00000d13          	addi	x26,x0,0
80000068:	00000d93          	addi	x27,x0,0
8000006c:	00000e13          	addi	x28,x0,0
80000070:	00000e93          	addi	x29,x0,0
80000074:	00000f13          	addi	x30,x0,0
80000078:	00000f93          	addi	x31,x0,0
8000007c:	00000193          	addi	x3,x0,0

80000080 <test_2>:
80000080:	00200193          	addi	x3,x0,2
80000084:	00000093          	addi	x1,x0,0
80000088:	00000113          	addi	x2,x0,0
8000008c:	0020a733          	slt	x14,x1,x2
80000090:	00000393          	addi	x7,x0,0
80000094:	4a771a63          	bne	x14,x7,80000548 <fail>

80000098 <test_3>:
80000098:	00300193          	addi	x3,x0,3
8000009c:	00100093          	addi	x1,x0,1
800000a0:	00100113          	addi	x2,x0,1
800000a4:	0020a733          	slt	x14,x1,x2
800000a8:	00000393          	addi	x7,x0,0
800000ac:	48771e63          	bne	x14,x7,80000548 <fail>

800000b0 <test_4>:
800000b0:	00400193          	addi	x3,x0,4
800000b4:	00300093          	addi	x1,x0,3
800000b8:	00700113          	addi	x2,x0,7
800000bc:	0020a733          	slt	x14,x1,x2
800000c0:	00100393          	addi	x7,x0,1
800000c4:	48771263          	bne	x14,x7,80000548 <fail>

800000c8 <test_5>:
800000c8:	00500193          	addi	x3,x0,5
800000cc:	00700093          	addi	x1,x0,7
800000d0:	00300113          	addi	x2,x0,3
800000d4:	0020a733          	slt	x14,x1,x2
800000d8:	00000393          	addi	x7,x0,0
800000dc:	46771663          	bne	x14,x7,80000548 <fail>

800000e0 <test_6>:
800000e0:	00600193          	addi	x3,x0,6
800000e4:	00000093          	addi	x1,x0,0
800000e8:	ffff8137          	lui	x2,0xffff8
800000ec:	0020a733          	slt	x14,x1,x2
800000f0:	00000393          	addi	x7,x0,0
800000f4:	44771a63          	bne	x14,x7,80000548 <fail>

800000f8 <test_7>:
800000f8:	00700193          	addi	x3,x0,7
800000fc:	800000b7          	lui	x1,0x80000
80000100:	00000113          	addi	x2,x0,0
80000104:	0020a733          	slt	x14,x1,x2
80000108:	00100393          	addi	x7,x0,1
8000010c:	42771e63          	bne	x14,x7,80000548 <fail>

80000110 <test_8>:
80000110:	00800193          	addi	x3,x0,8
80000114:	800000b7          	lui	x1,0x80000
80000118:	ffff8137          	lui	x2,0xffff8
8000011c:	0020a733          	slt	x14,x1,x2
80000120:	00100393          	addi	x7,x0,1
80000124:	42771263          	bne	x14,x7,80000548 <fail>

80000128 <test_9>:
80000128:	00900193          	addi	x3,x0,9
8000012c:	00000093          	addi	x1,x0,0
80000130:	00008137          	lui	x2,0x8
80000134:	fff10113          	addi	x2,x2,-1 # 7fff <_start-0x7fff8001>
80000138:	0020a733          	slt	x14,x1,x2
8000013c:	00100393          	addi	x7,x0,1
80000140:	40771463          	bne	x14,x7,80000548 <fail>

80000144 <test_10>:
80000144:	00a00193          	addi	x3,x0,10
80000148:	800000b7          	lui	x1,0x80000
8000014c:	fff08093          	addi	x1,x1,-1 # 7fffffff <_start-0x1>
80000150:	00000113          	addi	x2,x0,0
80000154:	0020a733          	slt	x14,x1,x2
80000158:	00000393          	addi	x7,x0,0
8000015c:	3e771663          	bne	x14,x7,80000548 <fail>

80000160 <test_11>:
80000160:	00b00193          	addi	x3,x0,11
80000164:	800000b7          	lui	x1,0x80000
80000168:	fff08093          	addi	x1,x1,-1 # 7fffffff <_start-0x1>
8000016c:	00008137          	lui	x2,0x8
80000170:	fff10113          	addi	x2,x2,-1 # 7fff <_start-0x7fff8001>
80000174:	0020a733          	slt	x14,x1,x2
80000178:	00000393          	addi	x7,x0,0
8000017c:	3c771663          	bne	x14,x7,80000548 <fail>

80000180 <test_12>:
80000180:	00c00193          	addi	x3,x0,12
80000184:	800000b7          	lui	x1,0x80000
80000188:	00008137          	lui	x2,0x8
8000018c:	fff10113          	addi	x2,x2,-1 # 7fff <_start-0x7fff8001>
80000190:	0020a733          	slt	x14,x1,x2
80000194:	00100393          	addi	x7,x0,1
80000198:	3a771863          	bne	x14,x7,80000548 <fail>

8000019c <test_13>:
8000019c:	00d00193          	addi	x3,x0,13
800001a0:	800000b7          	lui	x1,0x80000
800001a4:	fff08093          	addi	x1,x1,-1 # 7fffffff <_start-0x1>
800001a8:	ffff8137          	lui	x2,0xffff8
800001ac:	0020a733          	slt	x14,x1,x2
800001b0:	00000393          	addi	x7,x0,0
800001b4:	38771a63          	bne	x14,x7,80000548 <fail>

800001b8 <test_14>:
800001b8:	00e00193          	addi	x3,x0,14
800001bc:	00000093          	addi	x1,x0,0
800001c0:	fff00113          	addi	x2,x0,-1
800001c4:	0020a733          	slt	x14,x1,x2
800001c8:	00000393          	addi	x7,x0,0
800001cc:	36771e63          	bne	x14,x7,80000548 <fail>

800001d0 <test_15>:
800001d0:	00f00193          	addi	x3,x0,15
800001d4:	fff00093          	addi	x1,x0,-1
800001d8:	00100113          	addi	x2,x0,1
800001dc:	0020a733          	slt	x14,x1,x2
800001e0:	00100393          	addi	x7,x0,1
800001e4:	36771263          	bne	x14,x7,80000548 <fail>

800001e8 <test_16>:
800001e8:	01000193          	addi	x3,x0,16
800001ec:	fff00093          	addi	x1,x0,-1
800001f0:	fff00113          	addi	x2,x0,-1
800001f4:	0020a733          	slt	x14,x1,x2
800001f8:	00000393          	addi	x7,x0,0
800001fc:	34771663          	bne	x14,x7,80000548 <fail>

80000200 <test_17>:
80000200:	01100193          	addi	x3,x0,17
80000204:	00e00093          	addi	x1,x0,14
80000208:	00d00113          	addi	x2,x0,13
8000020c:	0020a0b3          	slt	x1,x1,x2
80000210:	00000393          	addi	x7,x0,0
80000214:	32709a63          	bne	x1,x7,80000548 <fail>

80000218 <test_18>:
80000218:	01200193          	addi	x3,x0,18
8000021c:	00b00093          	addi	x1,x0,11
80000220:	00d00113          	addi	x2,x0,13
80000224:	0020a133          	slt	x2,x1,x2
80000228:	00100393          	addi	x7,x0,1
8000022c:	30711e63          	bne	x2,x7,80000548 <fail>

80000230 <test_19>:
80000230:	01300193          	addi	x3,x0,19
80000234:	00d00093          	addi	x1,x0,13
80000238:	0010a0b3          	slt	x1,x1,x1
8000023c:	00000393          	addi	x7,x0,0
80000240:	30709463          	bne	x1,x7,80000548 <fail>

80000244 <test_20>:
80000244:	01400193          	addi	x3,x0,20
80000248:	00000213          	addi	x4,x0,0
8000024c:	00b00093          	addi	x1,x0,11
80000250:	00d00113          	addi	x2,x0,13
80000254:	0020a733          	slt	x14,x1,x2
80000258:	00070313          	addi	x6,x14,0
8000025c:	00120213          	addi	x4,x4,1 # 1 <_start-0x7fffffff>
80000260:	00200293          	addi	x5,x0,2
80000264:	fe5214e3          	bne	x4,x5,8000024c <test_20+0x8>
80000268:	00100393          	addi	x7,x0,1
8000026c:	2c731e63          	bne	x6,x7,80000548 <fail>

80000270 <test_21>:
80000270:	01500193          	addi	x3,x0,21
80000274:	00000213          	addi	x4,x0,0
80000278:	00e00093          	addi	x1,x0,14
8000027c:	00d00113          	addi	x2,x0,13
80000280:	0020a733          	slt	x14,x1,x2
80000284:	00000013          	addi	x0,x0,0
80000288:	00070313          	addi	x6,x14,0
8000028c:	00120213          	addi	x4,x4,1 # 1 <_start-0x7fffffff>
80000290:	00200293          	addi	x5,x0,2
80000294:	fe5212e3          	bne	x4,x5,80000278 <test_21+0x8>
80000298:	00000393          	addi	x7,x0,0
8000029c:	2a731663          	bne	x6,x7,80000548 <fail>

800002a0 <test_22>:
800002a0:	01600193          	addi	x3,x0,22
800002a4:	00000213          	addi	x4,x0,0
800002a8:	00c00093          	addi	x1,x0,12
800002ac:	00d00113          	addi	x2,x0,13
800002b0:	0020a733          	slt	x14,x1,x2
800002b4:	00000013          	addi	x0,x0,0
800002b8:	00000013          	addi	x0,x0,0
800002bc:	00070313          	addi	x6,x14,0
800002c0:	00120213          	addi	x4,x4,1 # 1 <_start-0x7fffffff>
800002c4:	00200293          	addi	x5,x0,2
800002c8:	fe5210e3          	bne	x4,x5,800002a8 <test_22+0x8>
800002cc:	00100393          	addi	x7,x0,1
800002d0:	26731c63          	bne	x6,x7,80000548 <fail>

800002d4 <test_23>:
800002d4:	01700193          	addi	x3,x0,23
800002d8:	00000213          	addi	x4,x0,0
800002dc:	00e00093          	addi	x1,x0,14
800002e0:	00d00113          	addi	x2,x0,13
800002e4:	0020a733          	slt	x14,x1,x2
800002e8:	00120213          	addi	x4,x4,1 # 1 <_start-0x7fffffff>
800002ec:	00200293          	addi	x5,x0,2
800002f0:	fe5216e3          	bne	x4,x5,800002dc <test_23+0x8>
800002f4:	00000393          	addi	x7,x0,0
800002f8:	24771863          	bne	x14,x7,80000548 <fail>

800002fc <test_24>:
800002fc:	01800193          	addi	x3,x0,24
80000300:	00000213          	addi	x4,x0,0
80000304:	00b00093          	addi	x1,x0,11
80000308:	00d00113          	addi	x2,x0,13
8000030c:	00000013          	addi	x0,x0,0
80000310:	0020a733          	slt	x14,x1,x2
80000314:	00120213          	addi	x4,x4,1 # 1 <_start-0x7fffffff>
80000318:	00200293          	addi	x5,x0,2
8000031c:	fe5214e3          	bne	x4,x5,80000304 <test_24+0x8>
80000320:	00100393          	addi	x7,x0,1
80000324:	22771263          	bne	x14,x7,80000548 <fail>

80000328 <test_25>:
80000328:	01900193          	addi	x3,x0,25
8000032c:	00000213          	addi	x4,x0,0
80000330:	00f00093          	addi	x1,x0,15
80000334:	00d00113          	addi	x2,x0,13
80000338:	00000013          	addi	x0,x0,0
8000033c:	00000013          	addi	x0,x0,0
80000340:	0020a733          	slt	x14,x1,x2
80000344:	00120213          	addi	x4,x4,1 # 1 <_start-0x7fffffff>
80000348:	00200293          	addi	x5,x0,2
8000034c:	fe5212e3          	bne	x4,x5,80000330 <test_25+0x8>
80000350:	00000393          	addi	x7,x0,0
80000354:	1e771a63          	bne	x14,x7,80000548 <fail>

80000358 <test_26>:
80000358:	01a00193          	addi	x3,x0,26
8000035c:	00000213          	addi	x4,x0,0
80000360:	00a00093          	addi	x1,x0,10
80000364:	00000013          	addi	x0,x0,0
80000368:	00d00113          	addi	x2,x0,13
8000036c:	0020a733          	slt	x14,x1,x2
80000370:	00120213          	addi	x4,x4,1 # 1 <_start-0x7fffffff>
80000374:	00200293          	addi	x5,x0,2
80000378:	fe5214e3          	bne	x4,x5,80000360 <test_26+0x8>
8000037c:	00100393          	addi	x7,x0,1
80000380:	1c771463          	bne	x14,x7,80000548 <fail>

80000384 <test_27>:
80000384:	01b00193          	addi	x3,x0,27
80000388:	00000213          	addi	x4,x0,0
8000038c:	01000093          	addi	x1,x0,16
80000390:	00000013          	addi	x0,x0,0
80000394:	00d00113          	addi	x2,x0,13
80000398:	00000013          	addi	x0,x0,0
8000039c:	0020a733          	slt	x14,x1,x2
800003a0:	00120213          	addi	x4,x4,1 # 1 <_start-0x7fffffff>
800003a4:	00200293          	addi	x5,x0,2
800003a8:	fe5212e3          	bne	x4,x5,8000038c <test_27+0x8>
800003ac:	00000393          	addi	x7,x0,0
800003b0:	18771c63          	bne	x14,x7,80000548 <fail>

800003b4 <test_28>:
800003b4:	01c00193          	addi	x3,x0,28
800003b8:	00000213          	addi	x4,x0,0
800003bc:	00900093          	addi	x1,x0,9
800003c0:	00000013          	addi	x0,x0,0
800003c4:	00000013          	addi	x0,x0,0
800003c8:	00d00113          	addi	x2,x0,13
800003cc:	0020a733          	slt	x14,x1,x2
800003d0:	00120213          	addi	x4,x4,1 # 1 <_start-0x7fffffff>
800003d4:	00200293          	addi	x5,x0,2
800003d8:	fe5212e3          	bne	x4,x5,800003bc <test_28+0x8>
800003dc:	00100393          	addi	x7,x0,1
800003e0:	16771463          	bne	x14,x7,80000548 <fail>

800003e4 <test_29>:
800003e4:	01d00193          	addi	x3,x0,29
800003e8:	00000213          	addi	x4,x0,0
800003ec:	00d00113          	addi	x2,x0,13
800003f0:	01100093          	addi	x1,x0,17
800003f4:	0020a733          	slt	x14,x1,x2
800003f8:	00120213          	addi	x4,x4,1 # 1 <_start-0x7fffffff>
800003fc:	00200293          	addi	x5,x0,2
80000400:	fe5216e3          	bne	x4,x5,800003ec <test_29+0x8>
80000404:	00000393          	addi	x7,x0,0
80000408:	14771063          	bne	x14,x7,80000548 <fail>

8000040c <test_30>:
8000040c:	01e00193          	addi	x3,x0,30
80000410:	00000213          	addi	x4,x0,0
80000414:	00d00113          	addi	x2,x0,13
80000418:	00800093          	addi	x1,x0,8
8000041c:	00000013          	addi	x0,x0,0
80000420:	0020a733          	slt	x14,x1,x2
80000424:	00120213          	addi	x4,x4,1 # 1 <_start-0x7fffffff>
80000428:	00200293          	addi	x5,x0,2
8000042c:	fe5214e3          	bne	x4,x5,80000414 <test_30+0x8>
80000430:	00100393          	addi	x7,x0,1
80000434:	10771a63          	bne	x14,x7,80000548 <fail>

80000438 <test_31>:
80000438:	01f00193          	addi	x3,x0,31
8000043c:	00000213          	addi	x4,x0,0
80000440:	00d00113          	addi	x2,x0,13
80000444:	01200093          	addi	x1,x0,18
80000448:	00000013          	addi	x0,x0,0
8000044c:	00000013          	addi	x0,x0,0
80000450:	0020a733          	slt	x14,x1,x2
80000454:	00120213          	addi	x4,x4,1 # 1 <_start-0x7fffffff>
80000458:	00200293          	addi	x5,x0,2
8000045c:	fe5212e3          	bne	x4,x5,80000440 <test_31+0x8>
80000460:	00000393          	addi	x7,x0,0
80000464:	0e771263          	bne	x14,x7,80000548 <fail>

80000468 <test_32>:
80000468:	02000193          	addi	x3,x0,32
8000046c:	00000213          	addi	x4,x0,0
80000470:	00d00113          	addi	x2,x0,13
80000474:	00000013          	addi	x0,x0,0
80000478:	00700093          	addi	x1,x0,7
8000047c:	0020a733          	slt	x14,x1,x2
80000480:	00120213          	addi	x4,x4,1 # 1 <_start-0x7fffffff>
80000484:	00200293          	addi	x5,x0,2
80000488:	fe5214e3          	bne	x4,x5,80000470 <test_32+0x8>
8000048c:	00100393          	addi	x7,x0,1
80000490:	0a771c63          	bne	x14,x7,80000548 <fail>

80000494 <test_33>:
80000494:	02100193          	addi	x3,x0,33
80000498:	00000213          	addi	x4,x0,0
8000049c:	00d00113          	addi	x2,x0,13
800004a0:	00000013          	addi	x0,x0,0
800004a4:	01300093          	addi	x1,x0,19
800004a8:	00000013          	addi	x0,x0,0
800004ac:	0020a733          	slt	x14,x1,x2
800004b0:	00120213          	addi	x4,x4,1 # 1 <_start-0x7fffffff>
800004b4:	00200293          	addi	x5,x0,2
800004b8:	fe5212e3          	bne	x4,x5,8000049c <test_33+0x8>
800004bc:	00000393          	addi	x7,x0,0
800004c0:	08771463          	bne	x14,x7,80000548 <fail>

800004c4 <test_34>:
800004c4:	02200193          	addi	x3,x0,34
800004c8:	00000213          	addi	x4,x0,0
800004cc:	00d00113          	addi	x2,x0,13
800004d0:	00000013          	addi	x0,x0,0
800004d4:	00000013          	addi	x0,x0,0
800004d8:	00600093          	addi	x1,x0,6
800004dc:	0020a733          	slt	x14,x1,x2
800004e0:	00120213          	addi	x4,x4,1 # 1 <_start-0x7fffffff>
800004e4:	00200293          	addi	x5,x0,2
800004e8:	fe5212e3          	bne	x4,x5,800004cc <test_34+0x8>
800004ec:	00100393          	addi	x7,x0,1
800004f0:	04771c63          	bne	x14,x7,80000548 <fail>

800004f4 <test_35>:
800004f4:	02300193          	addi	x3,x0,35
800004f8:	fff00093          	addi	x1,x0,-1
800004fc:	00102133          	slt	x2,x0,x1
80000500:	00000393          	addi	x7,x0,0
80000504:	04711263          	bne	x2,x7,80000548 <fail>

80000508 <test_36>:
80000508:	02400193          	addi	x3,x0,36
8000050c:	fff00093          	addi	x1,x0,-1
80000510:	0000a133          	slt	x2,x1,x0
80000514:	00100393          	addi	x7,x0,1
80000518:	02711863          	bne	x2,x7,80000548 <fail>

8000051c <test_37>:
8000051c:	02500193          	addi	x3,x0,37
80000520:	000020b3          	slt	x1,x0,x0
80000524:	00000393          	addi	x7,x0,0
80000528:	02709063          	bne	x1,x7,80000548 <fail>

8000052c <test_38>:
8000052c:	02600193          	addi	x3,x0,38
80000530:	01000093          	addi	x1,x0,16
80000534:	01e00113          	addi	x2,x0,30
80000538:	0020a033          	slt	x0,x1,x2
8000053c:	00000393          	addi	x7,x0,0
80000540:	00701463          	bne	x0,x7,80000548 <fail>
80000544:	00301e63          	bne	x0,x3,80000560 <pass>

80000548 <fail>:
80000548:	00018063          	beq	x3,x0,80000548 <fail>
8000054c:	00119193          	slli	x3,x3,0x1
80000550:	0011e193          	ori	x3,x3,1
80000554:	05d00893          	addi	x17,x0,93
80000558:	00018513          	addi	x10,x3,0
8000055c:	00000073          	ecall

80000560 <pass>:
80000560:	00100193          	addi	x3,x0,1
80000564:	05d00893          	addi	x17,x0,93
80000568:	00000513          	addi	x10,x0,0
8000056c:	00000073          	ecall
80000570:	c0001073          	unimp
80000574:	0000                	.insn	2, 0x
80000576:	0000                	.insn	2, 0x
80000578:	0000                	.insn	2, 0x
8000057a:	0000                	.insn	2, 0x
8000057c:	0000                	.insn	2, 0x
8000057e:	0000                	.insn	2, 0x
80000580:	0000                	.insn	2, 0x
80000582:	0000                	.insn	2, 0x
