
rv32ui-p-bgeu:     file format elf32-littleriscv


Disassembly of section .text.init:

80000000 <_start>:
80000000:	00000093          	addi	x1,x0,0
80000004:	00000113          	addi	x2,x0,0
80000008:	00000193          	addi	x3,x0,0
8000000c:	00000213          	addi	x4,x0,0
80000010:	00000293          	addi	x5,x0,0
80000014:	00000313          	addi	x6,x0,0
80000018:	00000393          	addi	x7,x0,0
8000001c:	00000413          	addi	x8,x0,0
80000020:	00000493          	addi	x9,x0,0
80000024:	00000513          	addi	x10,x0,0
80000028:	00000593          	addi	x11,x0,0
8000002c:	00000613          	addi	x12,x0,0
80000030:	00000693          	addi	x13,x0,0
80000034:	00000713          	addi	x14,x0,0
80000038:	00000793          	addi	x15,x0,0
8000003c:	00000813          	addi	x16,x0,0
80000040:	00000893          	addi	x17,x0,0
80000044:	00000913          	addi	x18,x0,0
80000048:	00000993          	addi	x19,x0,0
8000004c:	00000a13          	addi	x20,x0,0
80000050:	00000a93          	addi	x21,x0,0
80000054:	00000b13          	addi	x22,x0,0
80000058:	00000b93          	addi	x23,x0,0
8000005c:	00000c13          	addi	x24,x0,0
80000060:	00000c93          	addi	x25,x0,0
80000064:	00000d13          	addi	x26,x0,0
80000068:	00000d93          	addi	x27,x0,0
8000006c:	00000e13          	addi	x28,x0,0
80000070:	00000e93          	addi	x29,x0,0
80000074:	00000f13          	addi	x30,x0,0
80000078:	00000f93          	addi	x31,x0,0
8000007c:	00000193          	addi	x3,x0,0

80000080 <test_2>:
80000080:	00200193          	addi	x3,x0,2
80000084:	00000093          	addi	x1,x0,0
80000088:	00000113          	addi	x2,x0,0
8000008c:	0020f663          	bgeu	x1,x2,80000098 <test_2+0x18>
80000090:	34301263          	bne	x0,x3,800003d4 <fail>
80000094:	00301663          	bne	x0,x3,800000a0 <test_3>
80000098:	fe20fee3          	bgeu	x1,x2,80000094 <test_2+0x14>
8000009c:	32301c63          	bne	x0,x3,800003d4 <fail>

800000a0 <test_3>:
800000a0:	00300193          	addi	x3,x0,3
800000a4:	00100093          	addi	x1,x0,1
800000a8:	00100113          	addi	x2,x0,1
800000ac:	0020f663          	bgeu	x1,x2,800000b8 <test_3+0x18>
800000b0:	32301263          	bne	x0,x3,800003d4 <fail>
800000b4:	00301663          	bne	x0,x3,800000c0 <test_4>
800000b8:	fe20fee3          	bgeu	x1,x2,800000b4 <test_3+0x14>
800000bc:	30301c63          	bne	x0,x3,800003d4 <fail>

800000c0 <test_4>:
800000c0:	00400193          	addi	x3,x0,4
800000c4:	fff00093          	addi	x1,x0,-1
800000c8:	fff00113          	addi	x2,x0,-1
800000cc:	0020f663          	bgeu	x1,x2,800000d8 <test_4+0x18>
800000d0:	30301263          	bne	x0,x3,800003d4 <fail>
800000d4:	00301663          	bne	x0,x3,800000e0 <test_5>
800000d8:	fe20fee3          	bgeu	x1,x2,800000d4 <test_4+0x14>
800000dc:	2e301c63          	bne	x0,x3,800003d4 <fail>

800000e0 <test_5>:
800000e0:	00500193          	addi	x3,x0,5
800000e4:	00100093          	addi	x1,x0,1
800000e8:	00000113          	addi	x2,x0,0
800000ec:	0020f663          	bgeu	x1,x2,800000f8 <test_5+0x18>
800000f0:	2e301263          	bne	x0,x3,800003d4 <fail>
800000f4:	00301663          	bne	x0,x3,80000100 <test_6>
800000f8:	fe20fee3          	bgeu	x1,x2,800000f4 <test_5+0x14>
800000fc:	2c301c63          	bne	x0,x3,800003d4 <fail>

80000100 <test_6>:
80000100:	00600193          	addi	x3,x0,6
80000104:	fff00093          	addi	x1,x0,-1
80000108:	ffe00113          	addi	x2,x0,-2
8000010c:	0020f663          	bgeu	x1,x2,80000118 <test_6+0x18>
80000110:	2c301263          	bne	x0,x3,800003d4 <fail>
80000114:	00301663          	bne	x0,x3,80000120 <test_7>
80000118:	fe20fee3          	bgeu	x1,x2,80000114 <test_6+0x14>
8000011c:	2a301c63          	bne	x0,x3,800003d4 <fail>

80000120 <test_7>:
80000120:	00700193          	addi	x3,x0,7
80000124:	fff00093          	addi	x1,x0,-1
80000128:	00000113          	addi	x2,x0,0
8000012c:	0020f663          	bgeu	x1,x2,80000138 <test_7+0x18>
80000130:	2a301263          	bne	x0,x3,800003d4 <fail>
80000134:	00301663          	bne	x0,x3,80000140 <test_8>
80000138:	fe20fee3          	bgeu	x1,x2,80000134 <test_7+0x14>
8000013c:	28301c63          	bne	x0,x3,800003d4 <fail>

80000140 <test_8>:
80000140:	00800193          	addi	x3,x0,8
80000144:	00000093          	addi	x1,x0,0
80000148:	00100113          	addi	x2,x0,1
8000014c:	0020f463          	bgeu	x1,x2,80000154 <test_8+0x14>
80000150:	00301463          	bne	x0,x3,80000158 <test_8+0x18>
80000154:	28301063          	bne	x0,x3,800003d4 <fail>
80000158:	fe20fee3          	bgeu	x1,x2,80000154 <test_8+0x14>

8000015c <test_9>:
8000015c:	00900193          	addi	x3,x0,9
80000160:	ffe00093          	addi	x1,x0,-2
80000164:	fff00113          	addi	x2,x0,-1
80000168:	0020f463          	bgeu	x1,x2,80000170 <test_9+0x14>
8000016c:	00301463          	bne	x0,x3,80000174 <test_9+0x18>
80000170:	26301263          	bne	x0,x3,800003d4 <fail>
80000174:	fe20fee3          	bgeu	x1,x2,80000170 <test_9+0x14>

80000178 <test_10>:
80000178:	00a00193          	addi	x3,x0,10
8000017c:	00000093          	addi	x1,x0,0
80000180:	fff00113          	addi	x2,x0,-1
80000184:	0020f463          	bgeu	x1,x2,8000018c <test_10+0x14>
80000188:	00301463          	bne	x0,x3,80000190 <test_10+0x18>
8000018c:	24301463          	bne	x0,x3,800003d4 <fail>
80000190:	fe20fee3          	bgeu	x1,x2,8000018c <test_10+0x14>

80000194 <test_11>:
80000194:	00b00193          	addi	x3,x0,11
80000198:	800000b7          	lui	x1,0x80000
8000019c:	fff08093          	addi	x1,x1,-1 # 7fffffff <_start-0x1>
800001a0:	80000137          	lui	x2,0x80000
800001a4:	0020f463          	bgeu	x1,x2,800001ac <test_11+0x18>
800001a8:	00301463          	bne	x0,x3,800001b0 <test_11+0x1c>
800001ac:	22301463          	bne	x0,x3,800003d4 <fail>
800001b0:	fe20fee3          	bgeu	x1,x2,800001ac <test_11+0x18>

800001b4 <test_12>:
800001b4:	00c00193          	addi	x3,x0,12
800001b8:	00000213          	addi	x4,x0,0
800001bc:	f00000b7          	lui	x1,0xf0000
800001c0:	fff08093          	addi	x1,x1,-1 # efffffff <_end+0x6fffdfff>
800001c4:	f0000137          	lui	x2,0xf0000
800001c8:	2020f663          	bgeu	x1,x2,800003d4 <fail>
800001cc:	00120213          	addi	x4,x4,1 # 1 <_start-0x7fffffff>
800001d0:	00200293          	addi	x5,x0,2
800001d4:	fe5214e3          	bne	x4,x5,800001bc <test_12+0x8>

800001d8 <test_13>:
800001d8:	00d00193          	addi	x3,x0,13
800001dc:	00000213          	addi	x4,x0,0
800001e0:	f00000b7          	lui	x1,0xf0000
800001e4:	fff08093          	addi	x1,x1,-1 # efffffff <_end+0x6fffdfff>
800001e8:	f0000137          	lui	x2,0xf0000
800001ec:	00000013          	addi	x0,x0,0
800001f0:	1e20f263          	bgeu	x1,x2,800003d4 <fail>
800001f4:	00120213          	addi	x4,x4,1 # 1 <_start-0x7fffffff>
800001f8:	00200293          	addi	x5,x0,2
800001fc:	fe5212e3          	bne	x4,x5,800001e0 <test_13+0x8>

80000200 <test_14>:
80000200:	00e00193          	addi	x3,x0,14
80000204:	00000213          	addi	x4,x0,0
80000208:	f00000b7          	lui	x1,0xf0000
8000020c:	fff08093          	addi	x1,x1,-1 # efffffff <_end+0x6fffdfff>
80000210:	f0000137          	lui	x2,0xf0000
80000214:	00000013          	addi	x0,x0,0
80000218:	00000013          	addi	x0,x0,0
8000021c:	1a20fc63          	bgeu	x1,x2,800003d4 <fail>
80000220:	00120213          	addi	x4,x4,1 # 1 <_start-0x7fffffff>
80000224:	00200293          	addi	x5,x0,2
80000228:	fe5210e3          	bne	x4,x5,80000208 <test_14+0x8>

8000022c <test_15>:
8000022c:	00f00193          	addi	x3,x0,15
80000230:	00000213          	addi	x4,x0,0
80000234:	f00000b7          	lui	x1,0xf0000
80000238:	fff08093          	addi	x1,x1,-1 # efffffff <_end+0x6fffdfff>
8000023c:	00000013          	addi	x0,x0,0
80000240:	f0000137          	lui	x2,0xf0000
80000244:	1820f863          	bgeu	x1,x2,800003d4 <fail>
80000248:	00120213          	addi	x4,x4,1 # 1 <_start-0x7fffffff>
8000024c:	00200293          	addi	x5,x0,2
80000250:	fe5212e3          	bne	x4,x5,80000234 <test_15+0x8>

80000254 <test_16>:
80000254:	01000193          	addi	x3,x0,16
80000258:	00000213          	addi	x4,x0,0
8000025c:	f00000b7          	lui	x1,0xf0000
80000260:	fff08093          	addi	x1,x1,-1 # efffffff <_end+0x6fffdfff>
80000264:	00000013          	addi	x0,x0,0
80000268:	f0000137          	lui	x2,0xf0000
8000026c:	00000013          	addi	x0,x0,0
80000270:	1620f263          	bgeu	x1,x2,800003d4 <fail>
80000274:	00120213          	addi	x4,x4,1 # 1 <_start-0x7fffffff>
80000278:	00200293          	addi	x5,x0,2
8000027c:	fe5210e3          	bne	x4,x5,8000025c <test_16+0x8>

80000280 <test_17>:
80000280:	01100193          	addi	x3,x0,17
80000284:	00000213          	addi	x4,x0,0
80000288:	f00000b7          	lui	x1,0xf0000
8000028c:	fff08093          	addi	x1,x1,-1 # efffffff <_end+0x6fffdfff>
80000290:	00000013          	addi	x0,x0,0
80000294:	00000013          	addi	x0,x0,0
80000298:	f0000137          	lui	x2,0xf0000
8000029c:	1220fc63          	bgeu	x1,x2,800003d4 <fail>
800002a0:	00120213          	addi	x4,x4,1 # 1 <_start-0x7fffffff>
800002a4:	00200293          	addi	x5,x0,2
800002a8:	fe5210e3          	bne	x4,x5,80000288 <test_17+0x8>

800002ac <test_18>:
800002ac:	01200193          	addi	x3,x0,18
800002b0:	00000213          	addi	x4,x0,0
800002b4:	f00000b7          	lui	x1,0xf0000
800002b8:	fff08093          	addi	x1,x1,-1 # efffffff <_end+0x6fffdfff>
800002bc:	f0000137          	lui	x2,0xf0000
800002c0:	1020fa63          	bgeu	x1,x2,800003d4 <fail>
800002c4:	00120213          	addi	x4,x4,1 # 1 <_start-0x7fffffff>
800002c8:	00200293          	addi	x5,x0,2
800002cc:	fe5214e3          	bne	x4,x5,800002b4 <test_18+0x8>

800002d0 <test_19>:
800002d0:	01300193          	addi	x3,x0,19
800002d4:	00000213          	addi	x4,x0,0
800002d8:	f00000b7          	lui	x1,0xf0000
800002dc:	fff08093          	addi	x1,x1,-1 # efffffff <_end+0x6fffdfff>
800002e0:	f0000137          	lui	x2,0xf0000
800002e4:	00000013          	addi	x0,x0,0
800002e8:	0e20f663          	bgeu	x1,x2,800003d4 <fail>
800002ec:	00120213          	addi	x4,x4,1 # 1 <_start-0x7fffffff>
800002f0:	00200293          	addi	x5,x0,2
800002f4:	fe5212e3          	bne	x4,x5,800002d8 <test_19+0x8>

800002f8 <test_20>:
800002f8:	01400193          	addi	x3,x0,20
800002fc:	00000213          	addi	x4,x0,0
80000300:	f00000b7          	lui	x1,0xf0000
80000304:	fff08093          	addi	x1,x1,-1 # efffffff <_end+0x6fffdfff>
80000308:	f0000137          	lui	x2,0xf0000
8000030c:	00000013          	addi	x0,x0,0
80000310:	00000013          	addi	x0,x0,0
80000314:	0c20f063          	bgeu	x1,x2,800003d4 <fail>
80000318:	00120213          	addi	x4,x4,1 # 1 <_start-0x7fffffff>
8000031c:	00200293          	addi	x5,x0,2
80000320:	fe5210e3          	bne	x4,x5,80000300 <test_20+0x8>

80000324 <test_21>:
80000324:	01500193          	addi	x3,x0,21
80000328:	00000213          	addi	x4,x0,0
8000032c:	f00000b7          	lui	x1,0xf0000
80000330:	fff08093          	addi	x1,x1,-1 # efffffff <_end+0x6fffdfff>
80000334:	00000013          	addi	x0,x0,0
80000338:	f0000137          	lui	x2,0xf0000
8000033c:	0820fc63          	bgeu	x1,x2,800003d4 <fail>
80000340:	00120213          	addi	x4,x4,1 # 1 <_start-0x7fffffff>
80000344:	00200293          	addi	x5,x0,2
80000348:	fe5212e3          	bne	x4,x5,8000032c <test_21+0x8>

8000034c <test_22>:
8000034c:	01600193          	addi	x3,x0,22
80000350:	00000213          	addi	x4,x0,0
80000354:	f00000b7          	lui	x1,0xf0000
80000358:	fff08093          	addi	x1,x1,-1 # efffffff <_end+0x6fffdfff>
8000035c:	00000013          	addi	x0,x0,0
80000360:	f0000137          	lui	x2,0xf0000
80000364:	00000013          	addi	x0,x0,0
80000368:	0620f663          	bgeu	x1,x2,800003d4 <fail>
8000036c:	00120213          	addi	x4,x4,1 # 1 <_start-0x7fffffff>
80000370:	00200293          	addi	x5,x0,2
80000374:	fe5210e3          	bne	x4,x5,80000354 <test_22+0x8>

80000378 <test_23>:
80000378:	01700193          	addi	x3,x0,23
8000037c:	00000213          	addi	x4,x0,0
80000380:	f00000b7          	lui	x1,0xf0000
80000384:	fff08093          	addi	x1,x1,-1 # efffffff <_end+0x6fffdfff>
80000388:	00000013          	addi	x0,x0,0
8000038c:	00000013          	addi	x0,x0,0
80000390:	f0000137          	lui	x2,0xf0000
80000394:	0420f063          	bgeu	x1,x2,800003d4 <fail>
80000398:	00120213          	addi	x4,x4,1 # 1 <_start-0x7fffffff>
8000039c:	00200293          	addi	x5,x0,2
800003a0:	fe5210e3          	bne	x4,x5,80000380 <test_23+0x8>

800003a4 <test_24>:
800003a4:	01800193          	addi	x3,x0,24
800003a8:	00100093          	addi	x1,x0,1
800003ac:	0000fa63          	bgeu	x1,x0,800003c0 <test_24+0x1c>
800003b0:	00108093          	addi	x1,x1,1
800003b4:	00108093          	addi	x1,x1,1
800003b8:	00108093          	addi	x1,x1,1
800003bc:	00108093          	addi	x1,x1,1
800003c0:	00108093          	addi	x1,x1,1
800003c4:	00108093          	addi	x1,x1,1
800003c8:	00300393          	addi	x7,x0,3
800003cc:	00709463          	bne	x1,x7,800003d4 <fail>
800003d0:	00301e63          	bne	x0,x3,800003ec <pass>

800003d4 <fail>:
800003d4:	00018063          	beq	x3,x0,800003d4 <fail>
800003d8:	00119193          	slli	x3,x3,0x1
800003dc:	0011e193          	ori	x3,x3,1
800003e0:	05d00893          	addi	x17,x0,93
800003e4:	00018513          	addi	x10,x3,0
800003e8:	00000073          	ecall

800003ec <pass>:
800003ec:	00100193          	addi	x3,x0,1
800003f0:	05d00893          	addi	x17,x0,93
800003f4:	00000513          	addi	x10,x0,0
800003f8:	00000073          	ecall
800003fc:	c0001073          	unimp
80000400:	0000                	.insn	2, 0x
80000402:	0000                	.insn	2, 0x
