
rv32ui-p-sw:     file format elf32-littleriscv


Disassembly of section .text.init:

80000000 <_start>:
80000000:	00000093          	li	x1,0
80000004:	00000113          	li	x2,0
80000008:	00000193          	li	x3,0
8000000c:	00000213          	li	x4,0
80000010:	00000293          	li	x5,0
80000014:	00000313          	li	x6,0
80000018:	00000393          	li	x7,0
8000001c:	00000413          	li	x8,0
80000020:	00000493          	li	x9,0
80000024:	00000513          	li	x10,0
80000028:	00000593          	li	x11,0
8000002c:	00000613          	li	x12,0
80000030:	00000693          	li	x13,0
80000034:	00000713          	li	x14,0
80000038:	00000793          	li	x15,0
8000003c:	00000813          	li	x16,0
80000040:	00000893          	li	x17,0
80000044:	00000913          	li	x18,0
80000048:	00000993          	li	x19,0
8000004c:	00000a13          	li	x20,0
80000050:	00000a93          	li	x21,0
80000054:	00000b13          	li	x22,0
80000058:	00000b93          	li	x23,0
8000005c:	00000c13          	li	x24,0
80000060:	00000c93          	li	x25,0
80000064:	00000d13          	li	x26,0
80000068:	00000d93          	li	x27,0
8000006c:	00000e13          	li	x28,0
80000070:	00000e93          	li	x29,0
80000074:	00000f13          	li	x30,0
80000078:	00000f93          	li	x31,0
8000007c:	00000193          	li	x3,0

80000080 <test_2>:
80000080:	00200193          	li	x3,2
80000084:	00002097          	auipc	x1,0x2
80000088:	f7c08093          	add	x1,x1,-132 # 80002000 <begin_signature>
8000008c:	00aa0137          	lui	x2,0xaa0
80000090:	0aa10113          	add	x2,x2,170 # aa00aa <_start-0x7f55ff56>
80000094:	00000797          	auipc	x15,0x0
80000098:	01478793          	add	x15,x15,20 # 800000a8 <test_2+0x28>
8000009c:	0020a023          	sw	x2,0(x1)
800000a0:	0000a703          	lw	x14,0(x1)
800000a4:	0080006f          	j	800000ac <test_2+0x2c>
800000a8:	00010713          	mv	x14,x2
800000ac:	00aa03b7          	lui	x7,0xaa0
800000b0:	0aa38393          	add	x7,x7,170 # aa00aa <_start-0x7f55ff56>
800000b4:	4c771863          	bne	x14,x7,80000584 <fail>

800000b8 <test_3>:
800000b8:	00300193          	li	x3,3
800000bc:	00002097          	auipc	x1,0x2
800000c0:	f4408093          	add	x1,x1,-188 # 80002000 <begin_signature>
800000c4:	aa00b137          	lui	x2,0xaa00b
800000c8:	a0010113          	add	x2,x2,-1536 # aa00aa00 <_end+0x2a0089d0>
800000cc:	00000797          	auipc	x15,0x0
800000d0:	01478793          	add	x15,x15,20 # 800000e0 <test_3+0x28>
800000d4:	0020a223          	sw	x2,4(x1)
800000d8:	0040a703          	lw	x14,4(x1)
800000dc:	0080006f          	j	800000e4 <test_3+0x2c>
800000e0:	00010713          	mv	x14,x2
800000e4:	aa00b3b7          	lui	x7,0xaa00b
800000e8:	a0038393          	add	x7,x7,-1536 # aa00aa00 <_end+0x2a0089d0>
800000ec:	48771c63          	bne	x14,x7,80000584 <fail>

800000f0 <test_4>:
800000f0:	00400193          	li	x3,4
800000f4:	00002097          	auipc	x1,0x2
800000f8:	f0c08093          	add	x1,x1,-244 # 80002000 <begin_signature>
800000fc:	0aa01137          	lui	x2,0xaa01
80000100:	aa010113          	add	x2,x2,-1376 # aa00aa0 <_start-0x755ff560>
80000104:	00000797          	auipc	x15,0x0
80000108:	01478793          	add	x15,x15,20 # 80000118 <test_4+0x28>
8000010c:	0020a423          	sw	x2,8(x1)
80000110:	0080a703          	lw	x14,8(x1)
80000114:	0080006f          	j	8000011c <test_4+0x2c>
80000118:	00010713          	mv	x14,x2
8000011c:	0aa013b7          	lui	x7,0xaa01
80000120:	aa038393          	add	x7,x7,-1376 # aa00aa0 <_start-0x755ff560>
80000124:	46771063          	bne	x14,x7,80000584 <fail>

80000128 <test_5>:
80000128:	00500193          	li	x3,5
8000012c:	00002097          	auipc	x1,0x2
80000130:	ed408093          	add	x1,x1,-300 # 80002000 <begin_signature>
80000134:	a00aa137          	lui	x2,0xa00aa
80000138:	00a10113          	add	x2,x2,10 # a00aa00a <_end+0x200a7fda>
8000013c:	00000797          	auipc	x15,0x0
80000140:	01478793          	add	x15,x15,20 # 80000150 <test_5+0x28>
80000144:	0020a623          	sw	x2,12(x1)
80000148:	00c0a703          	lw	x14,12(x1)
8000014c:	0080006f          	j	80000154 <test_5+0x2c>
80000150:	00010713          	mv	x14,x2
80000154:	a00aa3b7          	lui	x7,0xa00aa
80000158:	00a38393          	add	x7,x7,10 # a00aa00a <_end+0x200a7fda>
8000015c:	42771463          	bne	x14,x7,80000584 <fail>

80000160 <test_6>:
80000160:	00600193          	li	x3,6
80000164:	00002097          	auipc	x1,0x2
80000168:	eb808093          	add	x1,x1,-328 # 8000201c <tdat8>
8000016c:	00aa0137          	lui	x2,0xaa0
80000170:	0aa10113          	add	x2,x2,170 # aa00aa <_start-0x7f55ff56>
80000174:	00000797          	auipc	x15,0x0
80000178:	01478793          	add	x15,x15,20 # 80000188 <test_6+0x28>
8000017c:	fe20aa23          	sw	x2,-12(x1)
80000180:	ff40a703          	lw	x14,-12(x1)
80000184:	0080006f          	j	8000018c <test_6+0x2c>
80000188:	00010713          	mv	x14,x2
8000018c:	00aa03b7          	lui	x7,0xaa0
80000190:	0aa38393          	add	x7,x7,170 # aa00aa <_start-0x7f55ff56>
80000194:	3e771863          	bne	x14,x7,80000584 <fail>

80000198 <test_7>:
80000198:	00700193          	li	x3,7
8000019c:	00002097          	auipc	x1,0x2
800001a0:	e8008093          	add	x1,x1,-384 # 8000201c <tdat8>
800001a4:	aa00b137          	lui	x2,0xaa00b
800001a8:	a0010113          	add	x2,x2,-1536 # aa00aa00 <_end+0x2a0089d0>
800001ac:	00000797          	auipc	x15,0x0
800001b0:	01478793          	add	x15,x15,20 # 800001c0 <test_7+0x28>
800001b4:	fe20ac23          	sw	x2,-8(x1)
800001b8:	ff80a703          	lw	x14,-8(x1)
800001bc:	0080006f          	j	800001c4 <test_7+0x2c>
800001c0:	00010713          	mv	x14,x2
800001c4:	aa00b3b7          	lui	x7,0xaa00b
800001c8:	a0038393          	add	x7,x7,-1536 # aa00aa00 <_end+0x2a0089d0>
800001cc:	3a771c63          	bne	x14,x7,80000584 <fail>

800001d0 <test_8>:
800001d0:	00800193          	li	x3,8
800001d4:	00002097          	auipc	x1,0x2
800001d8:	e4808093          	add	x1,x1,-440 # 8000201c <tdat8>
800001dc:	0aa01137          	lui	x2,0xaa01
800001e0:	aa010113          	add	x2,x2,-1376 # aa00aa0 <_start-0x755ff560>
800001e4:	00000797          	auipc	x15,0x0
800001e8:	01478793          	add	x15,x15,20 # 800001f8 <test_8+0x28>
800001ec:	fe20ae23          	sw	x2,-4(x1)
800001f0:	ffc0a703          	lw	x14,-4(x1)
800001f4:	0080006f          	j	800001fc <test_8+0x2c>
800001f8:	00010713          	mv	x14,x2
800001fc:	0aa013b7          	lui	x7,0xaa01
80000200:	aa038393          	add	x7,x7,-1376 # aa00aa0 <_start-0x755ff560>
80000204:	38771063          	bne	x14,x7,80000584 <fail>

80000208 <test_9>:
80000208:	00900193          	li	x3,9
8000020c:	00002097          	auipc	x1,0x2
80000210:	e1008093          	add	x1,x1,-496 # 8000201c <tdat8>
80000214:	a00aa137          	lui	x2,0xa00aa
80000218:	00a10113          	add	x2,x2,10 # a00aa00a <_end+0x200a7fda>
8000021c:	00000797          	auipc	x15,0x0
80000220:	01478793          	add	x15,x15,20 # 80000230 <test_9+0x28>
80000224:	0020a023          	sw	x2,0(x1)
80000228:	0000a703          	lw	x14,0(x1)
8000022c:	0080006f          	j	80000234 <test_9+0x2c>
80000230:	00010713          	mv	x14,x2
80000234:	a00aa3b7          	lui	x7,0xa00aa
80000238:	00a38393          	add	x7,x7,10 # a00aa00a <_end+0x200a7fda>
8000023c:	34771463          	bne	x14,x7,80000584 <fail>

80000240 <test_10>:
80000240:	00a00193          	li	x3,10
80000244:	00002097          	auipc	x1,0x2
80000248:	ddc08093          	add	x1,x1,-548 # 80002020 <tdat9>
8000024c:	12345137          	lui	x2,0x12345
80000250:	67810113          	add	x2,x2,1656 # 12345678 <_start-0x6dcba988>
80000254:	fe008213          	add	x4,x1,-32
80000258:	02222023          	sw	x2,32(x4) # 20 <_start-0x7fffffe0>
8000025c:	0000a283          	lw	x5,0(x1)
80000260:	123453b7          	lui	x7,0x12345
80000264:	67838393          	add	x7,x7,1656 # 12345678 <_start-0x6dcba988>
80000268:	30729e63          	bne	x5,x7,80000584 <fail>

8000026c <test_11>:
8000026c:	00b00193          	li	x3,11
80000270:	00002097          	auipc	x1,0x2
80000274:	db008093          	add	x1,x1,-592 # 80002020 <tdat9>
80000278:	58213137          	lui	x2,0x58213
8000027c:	09810113          	add	x2,x2,152 # 58213098 <_start-0x27decf68>
80000280:	ffd08093          	add	x1,x1,-3
80000284:	0020a3a3          	sw	x2,7(x1)
80000288:	00002217          	auipc	x4,0x2
8000028c:	d9c20213          	add	x4,x4,-612 # 80002024 <tdat10>
80000290:	00022283          	lw	x5,0(x4) # 0 <_start-0x80000000>
80000294:	582133b7          	lui	x7,0x58213
80000298:	09838393          	add	x7,x7,152 # 58213098 <_start-0x27decf68>
8000029c:	2e729463          	bne	x5,x7,80000584 <fail>

800002a0 <test_12>:
800002a0:	00c00193          	li	x3,12
800002a4:	00000213          	li	x4,0
800002a8:	aabbd0b7          	lui	x1,0xaabbd
800002ac:	cdd08093          	add	x1,x1,-803 # aabbccdd <_end+0x2abbacad>
800002b0:	00002117          	auipc	x2,0x2
800002b4:	d5010113          	add	x2,x2,-688 # 80002000 <begin_signature>
800002b8:	00112023          	sw	x1,0(x2)
800002bc:	00012703          	lw	x14,0(x2)
800002c0:	aabbd3b7          	lui	x7,0xaabbd
800002c4:	cdd38393          	add	x7,x7,-803 # aabbccdd <_end+0x2abbacad>
800002c8:	2a771e63          	bne	x14,x7,80000584 <fail>
800002cc:	00120213          	add	x4,x4,1 # 1 <_start-0x7fffffff>
800002d0:	00200293          	li	x5,2
800002d4:	fc521ae3          	bne	x4,x5,800002a8 <test_12+0x8>

800002d8 <test_13>:
800002d8:	00d00193          	li	x3,13
800002dc:	00000213          	li	x4,0
800002e0:	daabc0b7          	lui	x1,0xdaabc
800002e4:	ccd08093          	add	x1,x1,-819 # daabbccd <_end+0x5aab9c9d>
800002e8:	00002117          	auipc	x2,0x2
800002ec:	d1810113          	add	x2,x2,-744 # 80002000 <begin_signature>
800002f0:	00000013          	nop
800002f4:	00112223          	sw	x1,4(x2)
800002f8:	00412703          	lw	x14,4(x2)
800002fc:	daabc3b7          	lui	x7,0xdaabc
80000300:	ccd38393          	add	x7,x7,-819 # daabbccd <_end+0x5aab9c9d>
80000304:	28771063          	bne	x14,x7,80000584 <fail>
80000308:	00120213          	add	x4,x4,1 # 1 <_start-0x7fffffff>
8000030c:	00200293          	li	x5,2
80000310:	fc5218e3          	bne	x4,x5,800002e0 <test_13+0x8>

80000314 <test_14>:
80000314:	00e00193          	li	x3,14
80000318:	00000213          	li	x4,0
8000031c:	ddaac0b7          	lui	x1,0xddaac
80000320:	bcc08093          	add	x1,x1,-1076 # ddaabbcc <_end+0x5daa9b9c>
80000324:	00002117          	auipc	x2,0x2
80000328:	cdc10113          	add	x2,x2,-804 # 80002000 <begin_signature>
8000032c:	00000013          	nop
80000330:	00000013          	nop
80000334:	00112423          	sw	x1,8(x2)
80000338:	00812703          	lw	x14,8(x2)
8000033c:	ddaac3b7          	lui	x7,0xddaac
80000340:	bcc38393          	add	x7,x7,-1076 # ddaabbcc <_end+0x5daa9b9c>
80000344:	24771063          	bne	x14,x7,80000584 <fail>
80000348:	00120213          	add	x4,x4,1 # 1 <_start-0x7fffffff>
8000034c:	00200293          	li	x5,2
80000350:	fc5216e3          	bne	x4,x5,8000031c <test_14+0x8>

80000354 <test_15>:
80000354:	00f00193          	li	x3,15
80000358:	00000213          	li	x4,0
8000035c:	cddab0b7          	lui	x1,0xcddab
80000360:	bbc08093          	add	x1,x1,-1092 # cddaabbc <_end+0x4dda8b8c>
80000364:	00000013          	nop
80000368:	00002117          	auipc	x2,0x2
8000036c:	c9810113          	add	x2,x2,-872 # 80002000 <begin_signature>
80000370:	00112623          	sw	x1,12(x2)
80000374:	00c12703          	lw	x14,12(x2)
80000378:	cddab3b7          	lui	x7,0xcddab
8000037c:	bbc38393          	add	x7,x7,-1092 # cddaabbc <_end+0x4dda8b8c>
80000380:	20771263          	bne	x14,x7,80000584 <fail>
80000384:	00120213          	add	x4,x4,1 # 1 <_start-0x7fffffff>
80000388:	00200293          	li	x5,2
8000038c:	fc5218e3          	bne	x4,x5,8000035c <test_15+0x8>

80000390 <test_16>:
80000390:	01000193          	li	x3,16
80000394:	00000213          	li	x4,0
80000398:	ccddb0b7          	lui	x1,0xccddb
8000039c:	abb08093          	add	x1,x1,-1349 # ccddaabb <_end+0x4cdd8a8b>
800003a0:	00000013          	nop
800003a4:	00002117          	auipc	x2,0x2
800003a8:	c5c10113          	add	x2,x2,-932 # 80002000 <begin_signature>
800003ac:	00000013          	nop
800003b0:	00112823          	sw	x1,16(x2)
800003b4:	01012703          	lw	x14,16(x2)
800003b8:	ccddb3b7          	lui	x7,0xccddb
800003bc:	abb38393          	add	x7,x7,-1349 # ccddaabb <_end+0x4cdd8a8b>
800003c0:	1c771263          	bne	x14,x7,80000584 <fail>
800003c4:	00120213          	add	x4,x4,1 # 1 <_start-0x7fffffff>
800003c8:	00200293          	li	x5,2
800003cc:	fc5216e3          	bne	x4,x5,80000398 <test_16+0x8>

800003d0 <test_17>:
800003d0:	01100193          	li	x3,17
800003d4:	00000213          	li	x4,0
800003d8:	bccde0b7          	lui	x1,0xbccde
800003dc:	aab08093          	add	x1,x1,-1365 # bccddaab <_end+0x3ccdba7b>
800003e0:	00000013          	nop
800003e4:	00000013          	nop
800003e8:	00002117          	auipc	x2,0x2
800003ec:	c1810113          	add	x2,x2,-1000 # 80002000 <begin_signature>
800003f0:	00112a23          	sw	x1,20(x2)
800003f4:	01412703          	lw	x14,20(x2)
800003f8:	bccde3b7          	lui	x7,0xbccde
800003fc:	aab38393          	add	x7,x7,-1365 # bccddaab <_end+0x3ccdba7b>
80000400:	18771263          	bne	x14,x7,80000584 <fail>
80000404:	00120213          	add	x4,x4,1 # 1 <_start-0x7fffffff>
80000408:	00200293          	li	x5,2
8000040c:	fc5216e3          	bne	x4,x5,800003d8 <test_17+0x8>

80000410 <test_18>:
80000410:	01200193          	li	x3,18
80000414:	00000213          	li	x4,0
80000418:	00002117          	auipc	x2,0x2
8000041c:	be810113          	add	x2,x2,-1048 # 80002000 <begin_signature>
80000420:	001120b7          	lui	x1,0x112
80000424:	23308093          	add	x1,x1,563 # 112233 <_start-0x7feeddcd>
80000428:	00112023          	sw	x1,0(x2)
8000042c:	00012703          	lw	x14,0(x2)
80000430:	001123b7          	lui	x7,0x112
80000434:	23338393          	add	x7,x7,563 # 112233 <_start-0x7feeddcd>
80000438:	14771663          	bne	x14,x7,80000584 <fail>
8000043c:	00120213          	add	x4,x4,1 # 1 <_start-0x7fffffff>
80000440:	00200293          	li	x5,2
80000444:	fc521ae3          	bne	x4,x5,80000418 <test_18+0x8>

80000448 <test_19>:
80000448:	01300193          	li	x3,19
8000044c:	00000213          	li	x4,0
80000450:	00002117          	auipc	x2,0x2
80000454:	bb010113          	add	x2,x2,-1104 # 80002000 <begin_signature>
80000458:	300110b7          	lui	x1,0x30011
8000045c:	22308093          	add	x1,x1,547 # 30011223 <_start-0x4ffeeddd>
80000460:	00000013          	nop
80000464:	00112223          	sw	x1,4(x2)
80000468:	00412703          	lw	x14,4(x2)
8000046c:	300113b7          	lui	x7,0x30011
80000470:	22338393          	add	x7,x7,547 # 30011223 <_start-0x4ffeeddd>
80000474:	10771863          	bne	x14,x7,80000584 <fail>
80000478:	00120213          	add	x4,x4,1 # 1 <_start-0x7fffffff>
8000047c:	00200293          	li	x5,2
80000480:	fc5218e3          	bne	x4,x5,80000450 <test_19+0x8>

80000484 <test_20>:
80000484:	01400193          	li	x3,20
80000488:	00000213          	li	x4,0
8000048c:	00002117          	auipc	x2,0x2
80000490:	b7410113          	add	x2,x2,-1164 # 80002000 <begin_signature>
80000494:	330010b7          	lui	x1,0x33001
80000498:	12208093          	add	x1,x1,290 # 33001122 <_start-0x4cffeede>
8000049c:	00000013          	nop
800004a0:	00000013          	nop
800004a4:	00112423          	sw	x1,8(x2)
800004a8:	00812703          	lw	x14,8(x2)
800004ac:	330013b7          	lui	x7,0x33001
800004b0:	12238393          	add	x7,x7,290 # 33001122 <_start-0x4cffeede>
800004b4:	0c771863          	bne	x14,x7,80000584 <fail>
800004b8:	00120213          	add	x4,x4,1 # 1 <_start-0x7fffffff>
800004bc:	00200293          	li	x5,2
800004c0:	fc5216e3          	bne	x4,x5,8000048c <test_20+0x8>

800004c4 <test_21>:
800004c4:	01500193          	li	x3,21
800004c8:	00000213          	li	x4,0
800004cc:	00002117          	auipc	x2,0x2
800004d0:	b3410113          	add	x2,x2,-1228 # 80002000 <begin_signature>
800004d4:	00000013          	nop
800004d8:	233000b7          	lui	x1,0x23300
800004dc:	11208093          	add	x1,x1,274 # 23300112 <_start-0x5ccffeee>
800004e0:	00112623          	sw	x1,12(x2)
800004e4:	00c12703          	lw	x14,12(x2)
800004e8:	233003b7          	lui	x7,0x23300
800004ec:	11238393          	add	x7,x7,274 # 23300112 <_start-0x5ccffeee>
800004f0:	08771a63          	bne	x14,x7,80000584 <fail>
800004f4:	00120213          	add	x4,x4,1 # 1 <_start-0x7fffffff>
800004f8:	00200293          	li	x5,2
800004fc:	fc5218e3          	bne	x4,x5,800004cc <test_21+0x8>

80000500 <test_22>:
80000500:	01600193          	li	x3,22
80000504:	00000213          	li	x4,0
80000508:	00002117          	auipc	x2,0x2
8000050c:	af810113          	add	x2,x2,-1288 # 80002000 <begin_signature>
80000510:	00000013          	nop
80000514:	223300b7          	lui	x1,0x22330
80000518:	01108093          	add	x1,x1,17 # 22330011 <_start-0x5dccffef>
8000051c:	00000013          	nop
80000520:	00112823          	sw	x1,16(x2)
80000524:	01012703          	lw	x14,16(x2)
80000528:	223303b7          	lui	x7,0x22330
8000052c:	01138393          	add	x7,x7,17 # 22330011 <_start-0x5dccffef>
80000530:	04771a63          	bne	x14,x7,80000584 <fail>
80000534:	00120213          	add	x4,x4,1 # 1 <_start-0x7fffffff>
80000538:	00200293          	li	x5,2
8000053c:	fc5216e3          	bne	x4,x5,80000508 <test_22+0x8>

80000540 <test_23>:
80000540:	01700193          	li	x3,23
80000544:	00000213          	li	x4,0
80000548:	00002117          	auipc	x2,0x2
8000054c:	ab810113          	add	x2,x2,-1352 # 80002000 <begin_signature>
80000550:	00000013          	nop
80000554:	00000013          	nop
80000558:	122330b7          	lui	x1,0x12233
8000055c:	00108093          	add	x1,x1,1 # 12233001 <_start-0x6ddccfff>
80000560:	00112a23          	sw	x1,20(x2)
80000564:	01412703          	lw	x14,20(x2)
80000568:	122333b7          	lui	x7,0x12233
8000056c:	00138393          	add	x7,x7,1 # 12233001 <_start-0x6ddccfff>
80000570:	00771a63          	bne	x14,x7,80000584 <fail>
80000574:	00120213          	add	x4,x4,1 # 1 <_start-0x7fffffff>
80000578:	00200293          	li	x5,2
8000057c:	fc5216e3          	bne	x4,x5,80000548 <test_23+0x8>
80000580:	00301e63          	bne	x0,x3,8000059c <pass>

80000584 <fail>:
80000584:	00018063          	beqz	x3,80000584 <fail>
80000588:	00119193          	sll	x3,x3,0x1
8000058c:	0011e193          	or	x3,x3,1
80000590:	05d00893          	li	x17,93
80000594:	00018513          	mv	x10,x3
80000598:	00000073          	ecall

8000059c <pass>:
8000059c:	00100193          	li	x3,1
800005a0:	05d00893          	li	x17,93
800005a4:	00000513          	li	x10,0
800005a8:	00000073          	ecall
800005ac:	c0001073          	unimp
800005b0:	0000                	.insn	2, 0x
800005b2:	0000                	.insn	2, 0x
800005b4:	0000                	.insn	2, 0x
800005b6:	0000                	.insn	2, 0x
800005b8:	0000                	.insn	2, 0x
800005ba:	0000                	.insn	2, 0x
800005bc:	0000                	.insn	2, 0x
800005be:	0000                	.insn	2, 0x
800005c0:	0000                	.insn	2, 0x
800005c2:	0000                	.insn	2, 0x

Disassembly of section .data:

80002000 <begin_signature>:
80002000:	deadbeef          	jal	x29,7ffdd5ea <_start-0x22a16>

80002004 <tdat2>:
80002004:	deadbeef          	jal	x29,7ffdd5ee <_start-0x22a12>

80002008 <tdat3>:
80002008:	deadbeef          	jal	x29,7ffdd5f2 <_start-0x22a0e>

8000200c <tdat4>:
8000200c:	deadbeef          	jal	x29,7ffdd5f6 <_start-0x22a0a>

80002010 <tdat5>:
80002010:	deadbeef          	jal	x29,7ffdd5fa <_start-0x22a06>

80002014 <tdat6>:
80002014:	deadbeef          	jal	x29,7ffdd5fe <_start-0x22a02>

80002018 <tdat7>:
80002018:	deadbeef          	jal	x29,7ffdd602 <_start-0x229fe>

8000201c <tdat8>:
8000201c:	deadbeef          	jal	x29,7ffdd606 <_start-0x229fa>

80002020 <tdat9>:
80002020:	deadbeef          	jal	x29,7ffdd60a <_start-0x229f6>

80002024 <tdat10>:
80002024:	deadbeef          	jal	x29,7ffdd60e <_start-0x229f2>
80002028:	0000                	.insn	2, 0x
8000202a:	0000                	.insn	2, 0x
8000202c:	0000                	.insn	2, 0x
8000202e:	0000                	.insn	2, 0x
