
rv32ui-p-sub:     file format elf32-littleriscv


Disassembly of section .text.init:

80000000 <_start>:
80000000:	00000093          	li	x1,0
80000004:	00000113          	li	x2,0
80000008:	00000193          	li	x3,0
8000000c:	00000213          	li	x4,0
80000010:	00000293          	li	x5,0
80000014:	00000313          	li	x6,0
80000018:	00000393          	li	x7,0
8000001c:	00000413          	li	x8,0
80000020:	00000493          	li	x9,0
80000024:	00000513          	li	x10,0
80000028:	00000593          	li	x11,0
8000002c:	00000613          	li	x12,0
80000030:	00000693          	li	x13,0
80000034:	00000713          	li	x14,0
80000038:	00000793          	li	x15,0
8000003c:	00000813          	li	x16,0
80000040:	00000893          	li	x17,0
80000044:	00000913          	li	x18,0
80000048:	00000993          	li	x19,0
8000004c:	00000a13          	li	x20,0
80000050:	00000a93          	li	x21,0
80000054:	00000b13          	li	x22,0
80000058:	00000b93          	li	x23,0
8000005c:	00000c13          	li	x24,0
80000060:	00000c93          	li	x25,0
80000064:	00000d13          	li	x26,0
80000068:	00000d93          	li	x27,0
8000006c:	00000e13          	li	x28,0
80000070:	00000e93          	li	x29,0
80000074:	00000f13          	li	x30,0
80000078:	00000f93          	li	x31,0
8000007c:	00000193          	li	x3,0

80000080 <test_2>:
80000080:	00200193          	li	x3,2
80000084:	00000093          	li	x1,0
80000088:	00000113          	li	x2,0
8000008c:	40208733          	sub	x14,x1,x2
80000090:	00000393          	li	x7,0
80000094:	4a771663          	bne	x14,x7,80000540 <fail>

80000098 <test_3>:
80000098:	00300193          	li	x3,3
8000009c:	00100093          	li	x1,1
800000a0:	00100113          	li	x2,1
800000a4:	40208733          	sub	x14,x1,x2
800000a8:	00000393          	li	x7,0
800000ac:	48771a63          	bne	x14,x7,80000540 <fail>

800000b0 <test_4>:
800000b0:	00400193          	li	x3,4
800000b4:	00300093          	li	x1,3
800000b8:	00700113          	li	x2,7
800000bc:	40208733          	sub	x14,x1,x2
800000c0:	ffc00393          	li	x7,-4
800000c4:	46771e63          	bne	x14,x7,80000540 <fail>

800000c8 <test_5>:
800000c8:	00500193          	li	x3,5
800000cc:	00000093          	li	x1,0
800000d0:	ffff8137          	lui	x2,0xffff8
800000d4:	40208733          	sub	x14,x1,x2
800000d8:	000083b7          	lui	x7,0x8
800000dc:	46771263          	bne	x14,x7,80000540 <fail>

800000e0 <test_6>:
800000e0:	00600193          	li	x3,6
800000e4:	800000b7          	lui	x1,0x80000
800000e8:	00000113          	li	x2,0
800000ec:	40208733          	sub	x14,x1,x2
800000f0:	800003b7          	lui	x7,0x80000
800000f4:	44771663          	bne	x14,x7,80000540 <fail>

800000f8 <test_7>:
800000f8:	00700193          	li	x3,7
800000fc:	800000b7          	lui	x1,0x80000
80000100:	ffff8137          	lui	x2,0xffff8
80000104:	40208733          	sub	x14,x1,x2
80000108:	800083b7          	lui	x7,0x80008
8000010c:	42771a63          	bne	x14,x7,80000540 <fail>

80000110 <test_8>:
80000110:	00800193          	li	x3,8
80000114:	00000093          	li	x1,0
80000118:	00008137          	lui	x2,0x8
8000011c:	fff10113          	add	x2,x2,-1 # 7fff <_start-0x7fff8001>
80000120:	40208733          	sub	x14,x1,x2
80000124:	ffff83b7          	lui	x7,0xffff8
80000128:	00138393          	add	x7,x7,1 # ffff8001 <_end+0x7fff6001>
8000012c:	40771a63          	bne	x14,x7,80000540 <fail>

80000130 <test_9>:
80000130:	00900193          	li	x3,9
80000134:	800000b7          	lui	x1,0x80000
80000138:	fff08093          	add	x1,x1,-1 # 7fffffff <_start-0x1>
8000013c:	00000113          	li	x2,0
80000140:	40208733          	sub	x14,x1,x2
80000144:	800003b7          	lui	x7,0x80000
80000148:	fff38393          	add	x7,x7,-1 # 7fffffff <_start-0x1>
8000014c:	3e771a63          	bne	x14,x7,80000540 <fail>

80000150 <test_10>:
80000150:	00a00193          	li	x3,10
80000154:	800000b7          	lui	x1,0x80000
80000158:	fff08093          	add	x1,x1,-1 # 7fffffff <_start-0x1>
8000015c:	00008137          	lui	x2,0x8
80000160:	fff10113          	add	x2,x2,-1 # 7fff <_start-0x7fff8001>
80000164:	40208733          	sub	x14,x1,x2
80000168:	7fff83b7          	lui	x7,0x7fff8
8000016c:	3c771a63          	bne	x14,x7,80000540 <fail>

80000170 <test_11>:
80000170:	00b00193          	li	x3,11
80000174:	800000b7          	lui	x1,0x80000
80000178:	00008137          	lui	x2,0x8
8000017c:	fff10113          	add	x2,x2,-1 # 7fff <_start-0x7fff8001>
80000180:	40208733          	sub	x14,x1,x2
80000184:	7fff83b7          	lui	x7,0x7fff8
80000188:	00138393          	add	x7,x7,1 # 7fff8001 <_start-0x7fff>
8000018c:	3a771a63          	bne	x14,x7,80000540 <fail>

80000190 <test_12>:
80000190:	00c00193          	li	x3,12
80000194:	800000b7          	lui	x1,0x80000
80000198:	fff08093          	add	x1,x1,-1 # 7fffffff <_start-0x1>
8000019c:	ffff8137          	lui	x2,0xffff8
800001a0:	40208733          	sub	x14,x1,x2
800001a4:	800083b7          	lui	x7,0x80008
800001a8:	fff38393          	add	x7,x7,-1 # 80007fff <_end+0x5fff>
800001ac:	38771a63          	bne	x14,x7,80000540 <fail>

800001b0 <test_13>:
800001b0:	00d00193          	li	x3,13
800001b4:	00000093          	li	x1,0
800001b8:	fff00113          	li	x2,-1
800001bc:	40208733          	sub	x14,x1,x2
800001c0:	00100393          	li	x7,1
800001c4:	36771e63          	bne	x14,x7,80000540 <fail>

800001c8 <test_14>:
800001c8:	00e00193          	li	x3,14
800001cc:	fff00093          	li	x1,-1
800001d0:	00100113          	li	x2,1
800001d4:	40208733          	sub	x14,x1,x2
800001d8:	ffe00393          	li	x7,-2
800001dc:	36771263          	bne	x14,x7,80000540 <fail>

800001e0 <test_15>:
800001e0:	00f00193          	li	x3,15
800001e4:	fff00093          	li	x1,-1
800001e8:	fff00113          	li	x2,-1
800001ec:	40208733          	sub	x14,x1,x2
800001f0:	00000393          	li	x7,0
800001f4:	34771663          	bne	x14,x7,80000540 <fail>

800001f8 <test_16>:
800001f8:	01000193          	li	x3,16
800001fc:	00d00093          	li	x1,13
80000200:	00b00113          	li	x2,11
80000204:	402080b3          	sub	x1,x1,x2
80000208:	00200393          	li	x7,2
8000020c:	32709a63          	bne	x1,x7,80000540 <fail>

80000210 <test_17>:
80000210:	01100193          	li	x3,17
80000214:	00e00093          	li	x1,14
80000218:	00b00113          	li	x2,11
8000021c:	40208133          	sub	x2,x1,x2
80000220:	00300393          	li	x7,3
80000224:	30711e63          	bne	x2,x7,80000540 <fail>

80000228 <test_18>:
80000228:	01200193          	li	x3,18
8000022c:	00d00093          	li	x1,13
80000230:	401080b3          	sub	x1,x1,x1
80000234:	00000393          	li	x7,0
80000238:	30709463          	bne	x1,x7,80000540 <fail>

8000023c <test_19>:
8000023c:	01300193          	li	x3,19
80000240:	00000213          	li	x4,0
80000244:	00d00093          	li	x1,13
80000248:	00b00113          	li	x2,11
8000024c:	40208733          	sub	x14,x1,x2
80000250:	00070313          	mv	x6,x14
80000254:	00120213          	add	x4,x4,1 # 1 <_start-0x7fffffff>
80000258:	00200293          	li	x5,2
8000025c:	fe5214e3          	bne	x4,x5,80000244 <test_19+0x8>
80000260:	00200393          	li	x7,2
80000264:	2c731e63          	bne	x6,x7,80000540 <fail>

80000268 <test_20>:
80000268:	01400193          	li	x3,20
8000026c:	00000213          	li	x4,0
80000270:	00e00093          	li	x1,14
80000274:	00b00113          	li	x2,11
80000278:	40208733          	sub	x14,x1,x2
8000027c:	00000013          	nop
80000280:	00070313          	mv	x6,x14
80000284:	00120213          	add	x4,x4,1 # 1 <_start-0x7fffffff>
80000288:	00200293          	li	x5,2
8000028c:	fe5212e3          	bne	x4,x5,80000270 <test_20+0x8>
80000290:	00300393          	li	x7,3
80000294:	2a731663          	bne	x6,x7,80000540 <fail>

80000298 <test_21>:
80000298:	01500193          	li	x3,21
8000029c:	00000213          	li	x4,0
800002a0:	00f00093          	li	x1,15
800002a4:	00b00113          	li	x2,11
800002a8:	40208733          	sub	x14,x1,x2
800002ac:	00000013          	nop
800002b0:	00000013          	nop
800002b4:	00070313          	mv	x6,x14
800002b8:	00120213          	add	x4,x4,1 # 1 <_start-0x7fffffff>
800002bc:	00200293          	li	x5,2
800002c0:	fe5210e3          	bne	x4,x5,800002a0 <test_21+0x8>
800002c4:	00400393          	li	x7,4
800002c8:	26731c63          	bne	x6,x7,80000540 <fail>

800002cc <test_22>:
800002cc:	01600193          	li	x3,22
800002d0:	00000213          	li	x4,0
800002d4:	00d00093          	li	x1,13
800002d8:	00b00113          	li	x2,11
800002dc:	40208733          	sub	x14,x1,x2
800002e0:	00120213          	add	x4,x4,1 # 1 <_start-0x7fffffff>
800002e4:	00200293          	li	x5,2
800002e8:	fe5216e3          	bne	x4,x5,800002d4 <test_22+0x8>
800002ec:	00200393          	li	x7,2
800002f0:	24771863          	bne	x14,x7,80000540 <fail>

800002f4 <test_23>:
800002f4:	01700193          	li	x3,23
800002f8:	00000213          	li	x4,0
800002fc:	00e00093          	li	x1,14
80000300:	00b00113          	li	x2,11
80000304:	00000013          	nop
80000308:	40208733          	sub	x14,x1,x2
8000030c:	00120213          	add	x4,x4,1 # 1 <_start-0x7fffffff>
80000310:	00200293          	li	x5,2
80000314:	fe5214e3          	bne	x4,x5,800002fc <test_23+0x8>
80000318:	00300393          	li	x7,3
8000031c:	22771263          	bne	x14,x7,80000540 <fail>

80000320 <test_24>:
80000320:	01800193          	li	x3,24
80000324:	00000213          	li	x4,0
80000328:	00f00093          	li	x1,15
8000032c:	00b00113          	li	x2,11
80000330:	00000013          	nop
80000334:	00000013          	nop
80000338:	40208733          	sub	x14,x1,x2
8000033c:	00120213          	add	x4,x4,1 # 1 <_start-0x7fffffff>
80000340:	00200293          	li	x5,2
80000344:	fe5212e3          	bne	x4,x5,80000328 <test_24+0x8>
80000348:	00400393          	li	x7,4
8000034c:	1e771a63          	bne	x14,x7,80000540 <fail>

80000350 <test_25>:
80000350:	01900193          	li	x3,25
80000354:	00000213          	li	x4,0
80000358:	00d00093          	li	x1,13
8000035c:	00000013          	nop
80000360:	00b00113          	li	x2,11
80000364:	40208733          	sub	x14,x1,x2
80000368:	00120213          	add	x4,x4,1 # 1 <_start-0x7fffffff>
8000036c:	00200293          	li	x5,2
80000370:	fe5214e3          	bne	x4,x5,80000358 <test_25+0x8>
80000374:	00200393          	li	x7,2
80000378:	1c771463          	bne	x14,x7,80000540 <fail>

8000037c <test_26>:
8000037c:	01a00193          	li	x3,26
80000380:	00000213          	li	x4,0
80000384:	00e00093          	li	x1,14
80000388:	00000013          	nop
8000038c:	00b00113          	li	x2,11
80000390:	00000013          	nop
80000394:	40208733          	sub	x14,x1,x2
80000398:	00120213          	add	x4,x4,1 # 1 <_start-0x7fffffff>
8000039c:	00200293          	li	x5,2
800003a0:	fe5212e3          	bne	x4,x5,80000384 <test_26+0x8>
800003a4:	00300393          	li	x7,3
800003a8:	18771c63          	bne	x14,x7,80000540 <fail>

800003ac <test_27>:
800003ac:	01b00193          	li	x3,27
800003b0:	00000213          	li	x4,0
800003b4:	00f00093          	li	x1,15
800003b8:	00000013          	nop
800003bc:	00000013          	nop
800003c0:	00b00113          	li	x2,11
800003c4:	40208733          	sub	x14,x1,x2
800003c8:	00120213          	add	x4,x4,1 # 1 <_start-0x7fffffff>
800003cc:	00200293          	li	x5,2
800003d0:	fe5212e3          	bne	x4,x5,800003b4 <test_27+0x8>
800003d4:	00400393          	li	x7,4
800003d8:	16771463          	bne	x14,x7,80000540 <fail>

800003dc <test_28>:
800003dc:	01c00193          	li	x3,28
800003e0:	00000213          	li	x4,0
800003e4:	00b00113          	li	x2,11
800003e8:	00d00093          	li	x1,13
800003ec:	40208733          	sub	x14,x1,x2
800003f0:	00120213          	add	x4,x4,1 # 1 <_start-0x7fffffff>
800003f4:	00200293          	li	x5,2
800003f8:	fe5216e3          	bne	x4,x5,800003e4 <test_28+0x8>
800003fc:	00200393          	li	x7,2
80000400:	14771063          	bne	x14,x7,80000540 <fail>

80000404 <test_29>:
80000404:	01d00193          	li	x3,29
80000408:	00000213          	li	x4,0
8000040c:	00b00113          	li	x2,11
80000410:	00e00093          	li	x1,14
80000414:	00000013          	nop
80000418:	40208733          	sub	x14,x1,x2
8000041c:	00120213          	add	x4,x4,1 # 1 <_start-0x7fffffff>
80000420:	00200293          	li	x5,2
80000424:	fe5214e3          	bne	x4,x5,8000040c <test_29+0x8>
80000428:	00300393          	li	x7,3
8000042c:	10771a63          	bne	x14,x7,80000540 <fail>

80000430 <test_30>:
80000430:	01e00193          	li	x3,30
80000434:	00000213          	li	x4,0
80000438:	00b00113          	li	x2,11
8000043c:	00f00093          	li	x1,15
80000440:	00000013          	nop
80000444:	00000013          	nop
80000448:	40208733          	sub	x14,x1,x2
8000044c:	00120213          	add	x4,x4,1 # 1 <_start-0x7fffffff>
80000450:	00200293          	li	x5,2
80000454:	fe5212e3          	bne	x4,x5,80000438 <test_30+0x8>
80000458:	00400393          	li	x7,4
8000045c:	0e771263          	bne	x14,x7,80000540 <fail>

80000460 <test_31>:
80000460:	01f00193          	li	x3,31
80000464:	00000213          	li	x4,0
80000468:	00b00113          	li	x2,11
8000046c:	00000013          	nop
80000470:	00d00093          	li	x1,13
80000474:	40208733          	sub	x14,x1,x2
80000478:	00120213          	add	x4,x4,1 # 1 <_start-0x7fffffff>
8000047c:	00200293          	li	x5,2
80000480:	fe5214e3          	bne	x4,x5,80000468 <test_31+0x8>
80000484:	00200393          	li	x7,2
80000488:	0a771c63          	bne	x14,x7,80000540 <fail>

8000048c <test_32>:
8000048c:	02000193          	li	x3,32
80000490:	00000213          	li	x4,0
80000494:	00b00113          	li	x2,11
80000498:	00000013          	nop
8000049c:	00e00093          	li	x1,14
800004a0:	00000013          	nop
800004a4:	40208733          	sub	x14,x1,x2
800004a8:	00120213          	add	x4,x4,1 # 1 <_start-0x7fffffff>
800004ac:	00200293          	li	x5,2
800004b0:	fe5212e3          	bne	x4,x5,80000494 <test_32+0x8>
800004b4:	00300393          	li	x7,3
800004b8:	08771463          	bne	x14,x7,80000540 <fail>

800004bc <test_33>:
800004bc:	02100193          	li	x3,33
800004c0:	00000213          	li	x4,0
800004c4:	00b00113          	li	x2,11
800004c8:	00000013          	nop
800004cc:	00000013          	nop
800004d0:	00f00093          	li	x1,15
800004d4:	40208733          	sub	x14,x1,x2
800004d8:	00120213          	add	x4,x4,1 # 1 <_start-0x7fffffff>
800004dc:	00200293          	li	x5,2
800004e0:	fe5212e3          	bne	x4,x5,800004c4 <test_33+0x8>
800004e4:	00400393          	li	x7,4
800004e8:	04771c63          	bne	x14,x7,80000540 <fail>

800004ec <test_34>:
800004ec:	02200193          	li	x3,34
800004f0:	ff100093          	li	x1,-15
800004f4:	40100133          	neg	x2,x1
800004f8:	00f00393          	li	x7,15
800004fc:	04711263          	bne	x2,x7,80000540 <fail>

80000500 <test_35>:
80000500:	02300193          	li	x3,35
80000504:	02000093          	li	x1,32
80000508:	40008133          	sub	x2,x1,x0
8000050c:	02000393          	li	x7,32
80000510:	02711863          	bne	x2,x7,80000540 <fail>

80000514 <test_36>:
80000514:	02400193          	li	x3,36
80000518:	400000b3          	neg	x1,x0
8000051c:	00000393          	li	x7,0
80000520:	02709063          	bne	x1,x7,80000540 <fail>

80000524 <test_37>:
80000524:	02500193          	li	x3,37
80000528:	01000093          	li	x1,16
8000052c:	01e00113          	li	x2,30
80000530:	40208033          	sub	x0,x1,x2
80000534:	00000393          	li	x7,0
80000538:	00701463          	bne	x0,x7,80000540 <fail>
8000053c:	00301e63          	bne	x0,x3,80000558 <pass>

80000540 <fail>:
80000540:	00018063          	beqz	x3,80000540 <fail>
80000544:	00119193          	sll	x3,x3,0x1
80000548:	0011e193          	or	x3,x3,1
8000054c:	05d00893          	li	x17,93
80000550:	00018513          	mv	x10,x3
80000554:	00000073          	ecall

80000558 <pass>:
80000558:	00100193          	li	x3,1
8000055c:	05d00893          	li	x17,93
80000560:	00000513          	li	x10,0
80000564:	00000073          	ecall
80000568:	c0001073          	unimp
8000056c:	0000                	.insn	2, 0x
8000056e:	0000                	.insn	2, 0x
80000570:	0000                	.insn	2, 0x
80000572:	0000                	.insn	2, 0x
80000574:	0000                	.insn	2, 0x
80000576:	0000                	.insn	2, 0x
80000578:	0000                	.insn	2, 0x
8000057a:	0000                	.insn	2, 0x
8000057c:	0000                	.insn	2, 0x
8000057e:	0000                	.insn	2, 0x
80000580:	0000                	.insn	2, 0x
80000582:	0000                	.insn	2, 0x
