
rv32ui-p-srai:     file format elf32-littleriscv


Disassembly of section .text.init:

80000000 <_start>:
80000000:	00000093          	addi	x1,x0,0
80000004:	00000113          	addi	x2,x0,0
80000008:	00000193          	addi	x3,x0,0
8000000c:	00000213          	addi	x4,x0,0
80000010:	00000293          	addi	x5,x0,0
80000014:	00000313          	addi	x6,x0,0
80000018:	00000393          	addi	x7,x0,0
8000001c:	00000413          	addi	x8,x0,0
80000020:	00000493          	addi	x9,x0,0
80000024:	00000513          	addi	x10,x0,0
80000028:	00000593          	addi	x11,x0,0
8000002c:	00000613          	addi	x12,x0,0
80000030:	00000693          	addi	x13,x0,0
80000034:	00000713          	addi	x14,x0,0
80000038:	00000793          	addi	x15,x0,0
8000003c:	00000813          	addi	x16,x0,0
80000040:	00000893          	addi	x17,x0,0
80000044:	00000913          	addi	x18,x0,0
80000048:	00000993          	addi	x19,x0,0
8000004c:	00000a13          	addi	x20,x0,0
80000050:	00000a93          	addi	x21,x0,0
80000054:	00000b13          	addi	x22,x0,0
80000058:	00000b93          	addi	x23,x0,0
8000005c:	00000c13          	addi	x24,x0,0
80000060:	00000c93          	addi	x25,x0,0
80000064:	00000d13          	addi	x26,x0,0
80000068:	00000d93          	addi	x27,x0,0
8000006c:	00000e13          	addi	x28,x0,0
80000070:	00000e93          	addi	x29,x0,0
80000074:	00000f13          	addi	x30,x0,0
80000078:	00000f93          	addi	x31,x0,0
8000007c:	00000193          	addi	x3,x0,0

80000080 <test_2>:
80000080:	00200193          	addi	x3,x0,2
80000084:	00000093          	addi	x1,x0,0
80000088:	4000d713          	srai	x14,x1,0x0
8000008c:	00000393          	addi	x7,x0,0
80000090:	2a771463          	bne	x14,x7,80000338 <fail>

80000094 <test_3>:
80000094:	00300193          	addi	x3,x0,3
80000098:	800000b7          	lui	x1,0x80000
8000009c:	4010d713          	srai	x14,x1,0x1
800000a0:	c00003b7          	lui	x7,0xc0000
800000a4:	28771a63          	bne	x14,x7,80000338 <fail>

800000a8 <test_4>:
800000a8:	00400193          	addi	x3,x0,4
800000ac:	800000b7          	lui	x1,0x80000
800000b0:	4070d713          	srai	x14,x1,0x7
800000b4:	ff0003b7          	lui	x7,0xff000
800000b8:	28771063          	bne	x14,x7,80000338 <fail>

800000bc <test_5>:
800000bc:	00500193          	addi	x3,x0,5
800000c0:	800000b7          	lui	x1,0x80000
800000c4:	40e0d713          	srai	x14,x1,0xe
800000c8:	fffe03b7          	lui	x7,0xfffe0
800000cc:	26771663          	bne	x14,x7,80000338 <fail>

800000d0 <test_6>:
800000d0:	00600193          	addi	x3,x0,6
800000d4:	800000b7          	lui	x1,0x80000
800000d8:	00108093          	addi	x1,x1,1 # 80000001 <_start+0x1>
800000dc:	41f0d713          	srai	x14,x1,0x1f
800000e0:	fff00393          	addi	x7,x0,-1
800000e4:	24771a63          	bne	x14,x7,80000338 <fail>

800000e8 <test_7>:
800000e8:	00700193          	addi	x3,x0,7
800000ec:	800000b7          	lui	x1,0x80000
800000f0:	fff08093          	addi	x1,x1,-1 # 7fffffff <_start-0x1>
800000f4:	4000d713          	srai	x14,x1,0x0
800000f8:	800003b7          	lui	x7,0x80000
800000fc:	fff38393          	addi	x7,x7,-1 # 7fffffff <_start-0x1>
80000100:	22771c63          	bne	x14,x7,80000338 <fail>

80000104 <test_8>:
80000104:	00800193          	addi	x3,x0,8
80000108:	800000b7          	lui	x1,0x80000
8000010c:	fff08093          	addi	x1,x1,-1 # 7fffffff <_start-0x1>
80000110:	4010d713          	srai	x14,x1,0x1
80000114:	400003b7          	lui	x7,0x40000
80000118:	fff38393          	addi	x7,x7,-1 # 3fffffff <_start-0x40000001>
8000011c:	20771e63          	bne	x14,x7,80000338 <fail>

80000120 <test_9>:
80000120:	00900193          	addi	x3,x0,9
80000124:	800000b7          	lui	x1,0x80000
80000128:	fff08093          	addi	x1,x1,-1 # 7fffffff <_start-0x1>
8000012c:	4070d713          	srai	x14,x1,0x7
80000130:	010003b7          	lui	x7,0x1000
80000134:	fff38393          	addi	x7,x7,-1 # ffffff <_start-0x7f000001>
80000138:	20771063          	bne	x14,x7,80000338 <fail>

8000013c <test_10>:
8000013c:	00a00193          	addi	x3,x0,10
80000140:	800000b7          	lui	x1,0x80000
80000144:	fff08093          	addi	x1,x1,-1 # 7fffffff <_start-0x1>
80000148:	40e0d713          	srai	x14,x1,0xe
8000014c:	000203b7          	lui	x7,0x20
80000150:	fff38393          	addi	x7,x7,-1 # 1ffff <_start-0x7ffe0001>
80000154:	1e771263          	bne	x14,x7,80000338 <fail>

80000158 <test_11>:
80000158:	00b00193          	addi	x3,x0,11
8000015c:	800000b7          	lui	x1,0x80000
80000160:	fff08093          	addi	x1,x1,-1 # 7fffffff <_start-0x1>
80000164:	41f0d713          	srai	x14,x1,0x1f
80000168:	00000393          	addi	x7,x0,0
8000016c:	1c771663          	bne	x14,x7,80000338 <fail>

80000170 <test_12>:
80000170:	00c00193          	addi	x3,x0,12
80000174:	818180b7          	lui	x1,0x81818
80000178:	18108093          	addi	x1,x1,385 # 81818181 <_end+0x1816181>
8000017c:	4000d713          	srai	x14,x1,0x0
80000180:	818183b7          	lui	x7,0x81818
80000184:	18138393          	addi	x7,x7,385 # 81818181 <_end+0x1816181>
80000188:	1a771863          	bne	x14,x7,80000338 <fail>

8000018c <test_13>:
8000018c:	00d00193          	addi	x3,x0,13
80000190:	818180b7          	lui	x1,0x81818
80000194:	18108093          	addi	x1,x1,385 # 81818181 <_end+0x1816181>
80000198:	4010d713          	srai	x14,x1,0x1
8000019c:	c0c0c3b7          	lui	x7,0xc0c0c
800001a0:	0c038393          	addi	x7,x7,192 # c0c0c0c0 <_end+0x40c0a0c0>
800001a4:	18771a63          	bne	x14,x7,80000338 <fail>

800001a8 <test_14>:
800001a8:	00e00193          	addi	x3,x0,14
800001ac:	818180b7          	lui	x1,0x81818
800001b0:	18108093          	addi	x1,x1,385 # 81818181 <_end+0x1816181>
800001b4:	4070d713          	srai	x14,x1,0x7
800001b8:	ff0303b7          	lui	x7,0xff030
800001bc:	30338393          	addi	x7,x7,771 # ff030303 <_end+0x7f02e303>
800001c0:	16771c63          	bne	x14,x7,80000338 <fail>

800001c4 <test_15>:
800001c4:	00f00193          	addi	x3,x0,15
800001c8:	818180b7          	lui	x1,0x81818
800001cc:	18108093          	addi	x1,x1,385 # 81818181 <_end+0x1816181>
800001d0:	40e0d713          	srai	x14,x1,0xe
800001d4:	fffe03b7          	lui	x7,0xfffe0
800001d8:	60638393          	addi	x7,x7,1542 # fffe0606 <_end+0x7ffde606>
800001dc:	14771e63          	bne	x14,x7,80000338 <fail>

800001e0 <test_16>:
800001e0:	01000193          	addi	x3,x0,16
800001e4:	818180b7          	lui	x1,0x81818
800001e8:	18108093          	addi	x1,x1,385 # 81818181 <_end+0x1816181>
800001ec:	41f0d713          	srai	x14,x1,0x1f
800001f0:	fff00393          	addi	x7,x0,-1
800001f4:	14771263          	bne	x14,x7,80000338 <fail>

800001f8 <test_17>:
800001f8:	01100193          	addi	x3,x0,17
800001fc:	800000b7          	lui	x1,0x80000
80000200:	4070d093          	srai	x1,x1,0x7
80000204:	ff0003b7          	lui	x7,0xff000
80000208:	12709863          	bne	x1,x7,80000338 <fail>

8000020c <test_18>:
8000020c:	01200193          	addi	x3,x0,18
80000210:	00000213          	addi	x4,x0,0
80000214:	800000b7          	lui	x1,0x80000
80000218:	4070d713          	srai	x14,x1,0x7
8000021c:	00070313          	addi	x6,x14,0
80000220:	00120213          	addi	x4,x4,1 # 1 <_start-0x7fffffff>
80000224:	00200293          	addi	x5,x0,2
80000228:	fe5216e3          	bne	x4,x5,80000214 <test_18+0x8>
8000022c:	ff0003b7          	lui	x7,0xff000
80000230:	10731463          	bne	x6,x7,80000338 <fail>

80000234 <test_19>:
80000234:	01300193          	addi	x3,x0,19
80000238:	00000213          	addi	x4,x0,0
8000023c:	800000b7          	lui	x1,0x80000
80000240:	40e0d713          	srai	x14,x1,0xe
80000244:	00000013          	addi	x0,x0,0
80000248:	00070313          	addi	x6,x14,0
8000024c:	00120213          	addi	x4,x4,1 # 1 <_start-0x7fffffff>
80000250:	00200293          	addi	x5,x0,2
80000254:	fe5214e3          	bne	x4,x5,8000023c <test_19+0x8>
80000258:	fffe03b7          	lui	x7,0xfffe0
8000025c:	0c731e63          	bne	x6,x7,80000338 <fail>

80000260 <test_20>:
80000260:	01400193          	addi	x3,x0,20
80000264:	00000213          	addi	x4,x0,0
80000268:	800000b7          	lui	x1,0x80000
8000026c:	00108093          	addi	x1,x1,1 # 80000001 <_start+0x1>
80000270:	41f0d713          	srai	x14,x1,0x1f
80000274:	00000013          	addi	x0,x0,0
80000278:	00000013          	addi	x0,x0,0
8000027c:	00070313          	addi	x6,x14,0
80000280:	00120213          	addi	x4,x4,1 # 1 <_start-0x7fffffff>
80000284:	00200293          	addi	x5,x0,2
80000288:	fe5210e3          	bne	x4,x5,80000268 <test_20+0x8>
8000028c:	fff00393          	addi	x7,x0,-1
80000290:	0a731463          	bne	x6,x7,80000338 <fail>

80000294 <test_21>:
80000294:	01500193          	addi	x3,x0,21
80000298:	00000213          	addi	x4,x0,0
8000029c:	800000b7          	lui	x1,0x80000
800002a0:	4070d713          	srai	x14,x1,0x7
800002a4:	00120213          	addi	x4,x4,1 # 1 <_start-0x7fffffff>
800002a8:	00200293          	addi	x5,x0,2
800002ac:	fe5218e3          	bne	x4,x5,8000029c <test_21+0x8>
800002b0:	ff0003b7          	lui	x7,0xff000
800002b4:	08771263          	bne	x14,x7,80000338 <fail>

800002b8 <test_22>:
800002b8:	01600193          	addi	x3,x0,22
800002bc:	00000213          	addi	x4,x0,0
800002c0:	800000b7          	lui	x1,0x80000
800002c4:	00000013          	addi	x0,x0,0
800002c8:	40e0d713          	srai	x14,x1,0xe
800002cc:	00120213          	addi	x4,x4,1 # 1 <_start-0x7fffffff>
800002d0:	00200293          	addi	x5,x0,2
800002d4:	fe5216e3          	bne	x4,x5,800002c0 <test_22+0x8>
800002d8:	fffe03b7          	lui	x7,0xfffe0
800002dc:	04771e63          	bne	x14,x7,80000338 <fail>

800002e0 <test_23>:
800002e0:	01700193          	addi	x3,x0,23
800002e4:	00000213          	addi	x4,x0,0
800002e8:	800000b7          	lui	x1,0x80000
800002ec:	00108093          	addi	x1,x1,1 # 80000001 <_start+0x1>
800002f0:	00000013          	addi	x0,x0,0
800002f4:	00000013          	addi	x0,x0,0
800002f8:	41f0d713          	srai	x14,x1,0x1f
800002fc:	00120213          	addi	x4,x4,1 # 1 <_start-0x7fffffff>
80000300:	00200293          	addi	x5,x0,2
80000304:	fe5212e3          	bne	x4,x5,800002e8 <test_23+0x8>
80000308:	fff00393          	addi	x7,x0,-1
8000030c:	02771663          	bne	x14,x7,80000338 <fail>

80000310 <test_24>:
80000310:	01800193          	addi	x3,x0,24
80000314:	40405093          	srai	x1,x0,0x4
80000318:	00000393          	addi	x7,x0,0
8000031c:	00709e63          	bne	x1,x7,80000338 <fail>

80000320 <test_25>:
80000320:	01900193          	addi	x3,x0,25
80000324:	02100093          	addi	x1,x0,33
80000328:	40a0d013          	srai	x0,x1,0xa
8000032c:	00000393          	addi	x7,x0,0
80000330:	00701463          	bne	x0,x7,80000338 <fail>
80000334:	00301e63          	bne	x0,x3,80000350 <pass>

80000338 <fail>:
80000338:	00018063          	beq	x3,x0,80000338 <fail>
8000033c:	00119193          	slli	x3,x3,0x1
80000340:	0011e193          	ori	x3,x3,1
80000344:	05d00893          	addi	x17,x0,93
80000348:	00018513          	addi	x10,x3,0
8000034c:	00000073          	ecall

80000350 <pass>:
80000350:	00100193          	addi	x3,x0,1
80000354:	05d00893          	addi	x17,x0,93
80000358:	00000513          	addi	x10,x0,0
8000035c:	00000073          	ecall
80000360:	c0001073          	unimp
80000364:	0000                	.insn	2, 0x
80000366:	0000                	.insn	2, 0x
80000368:	0000                	.insn	2, 0x
8000036a:	0000                	.insn	2, 0x
8000036c:	0000                	.insn	2, 0x
8000036e:	0000                	.insn	2, 0x
80000370:	0000                	.insn	2, 0x
80000372:	0000                	.insn	2, 0x
80000374:	0000                	.insn	2, 0x
80000376:	0000                	.insn	2, 0x
80000378:	0000                	.insn	2, 0x
8000037a:	0000                	.insn	2, 0x
8000037c:	0000                	.insn	2, 0x
8000037e:	0000                	.insn	2, 0x
80000380:	0000                	.insn	2, 0x
80000382:	0000                	.insn	2, 0x
